(iinternal_font_class
Font
p1
(dp2
S'current'
p3
I191
sS'bg'
p4
(dp5
S'r'
I0
sS'b'
I0
sS'g'
I0
ssS'_rows'
p6
I12
sS'changed'
p7
I00
sS'_cols'
p8
I8
sS'_chars'
p9
(lp10
(lp11
(lp12
I0
aI0
aI0
aI0
aI0
aI0
aI0
aI0
aa(lp13
I0
aI0
aI0
aI0
aI0
aI0
aI0
aI0
aa(lp14
I0
aI0
aI0
aI0
aI0
aI0
aI0
aI0
aa(lp15
I0
aI0
aI0
aI0
aI0
aI0
aI0
aI0
aa(lp16
I0
aI0
aI0
aI0
aI0
aI0
aI0
aI0
aa(lp17
I0
aI0
aI0
aI1
aI1
aI1
aI1
aI1
aa(lp18
I0
aI0
aI0
aI1
aI1
aI1
aI1
aI1
aa(lp19
I0
aI0
aI0
aI1
aI1
aI0
aI0
aI0
aa(lp20
I0
aI0
aI0
aI1
aI1
aI0
aI0
aI0
aa(lp21
I0
aI0
aI0
aI1
aI1
aI0
aI0
aI0
aa(lp22
I0
aI0
aI0
aI1
aI1
aI0
aI0
aI0
aa(lp23
I0
aI0
aI0
aI1
aI1
aI0
aI0
aI0
aaa(lp24
(lp25
I0
aI0
aI0
aI0
aI0
aI0
aI0
aI0
aa(lp26
I0
aI0
aI0
aI0
aI0
aI0
aI0
aI0
aa(lp27
I0
aI0
aI0
aI0
aI0
aI0
aI0
aI0
aa(lp28
I0
aI0
aI0
aI0
aI0
aI0
aI0
aI0
aa(lp29
I0
aI0
aI0
aI0
aI0
aI0
aI0
aI0
aa(lp30
I1
aI1
aI1
aI1
aI1
aI1
aI1
aI1
aa(lp31
I1
aI1
aI1
aI1
aI1
aI1
aI1
aI1
aa(lp32
I0
aI0
aI0
aI0
aI0
aI0
aI0
aI0
aa(lp33
I0
aI0
aI0
aI0
aI0
aI0
aI0
aI0
aa(lp34
I0
aI0
aI0
aI0
aI0
aI0
aI0
aI0
aa(lp35
I0
aI0
aI0
aI0
aI0
aI0
aI0
aI0
aa(lp36
I0
aI0
aI0
aI0
aI0
aI0
aI0
aI0
aaa(lp37
(lp38
I0
aI0
aI0
aI0
aI0
aI0
aI0
aI0
aa(lp39
I0
aI0
aI0
aI0
aI0
aI0
aI0
aI0
aa(lp40
I0
aI0
aI0
aI0
aI0
aI0
aI0
aI0
aa(lp41
I0
aI0
aI0
aI0
aI0
aI0
aI0
aI0
aa(lp42
I0
aI0
aI0
aI0
aI0
aI0
aI0
aI0
aa(lp43
I1
aI1
aI1
aI1
aI1
aI0
aI0
aI0
aa(lp44
I1
aI1
aI1
aI1
aI1
aI0
aI0
aI0
aa(lp45
I0
aI0
aI0
aI1
aI1
aI0
aI0
aI0
aa(lp46
I0
aI0
aI0
aI1
aI1
aI0
aI0
aI0
aa(lp47
I0
aI0
aI0
aI1
aI1
aI0
aI0
aI0
aa(lp48
I0
aI0
aI0
aI1
aI1
aI0
aI0
aI0
aa(lp49
I0
aI0
aI0
aI1
aI1
aI0
aI0
aI0
aaa(lp50
(lp51
I0
aI0
aI0
aI1
aI1
aI0
aI0
aI0
aa(lp52
I0
aI0
aI0
aI1
aI1
aI0
aI0
aI0
aa(lp53
I0
aI0
aI0
aI1
aI1
aI0
aI0
aI0
aa(lp54
I0
aI0
aI0
aI1
aI1
aI0
aI0
aI0
aa(lp55
I0
aI0
aI0
aI1
aI1
aI0
aI0
aI0
aa(lp56
I0
aI0
aI0
aI1
aI1
aI0
aI0
aI0
aa(lp57
I0
aI0
aI0
aI1
aI1
aI0
aI0
aI0
aa(lp58
I0
aI0
aI0
aI1
aI1
aI0
aI0
aI0
aa(lp59
I0
aI0
aI0
aI1
aI1
aI0
aI0
aI0
aa(lp60
I0
aI0
aI0
aI1
aI1
aI0
aI0
aI0
aa(lp61
I0
aI0
aI0
aI1
aI1
aI0
aI0
aI0
aa(lp62
I0
aI0
aI0
aI1
aI1
aI0
aI0
aI0
aaa(lp63
(lp64
I0
aI0
aI0
aI1
aI1
aI0
aI0
aI0
aa(lp65
I0
aI0
aI0
aI1
aI1
aI0
aI0
aI0
aa(lp66
I0
aI0
aI0
aI1
aI1
aI0
aI0
aI0
aa(lp67
I0
aI0
aI0
aI1
aI1
aI0
aI0
aI0
aa(lp68
I0
aI0
aI0
aI1
aI1
aI0
aI0
aI0
aa(lp69
I0
aI0
aI0
aI1
aI1
aI1
aI1
aI1
aa(lp70
I0
aI0
aI0
aI1
aI1
aI1
aI1
aI1
aa(lp71
I0
aI0
aI0
aI0
aI0
aI0
aI0
aI0
aa(lp72
I0
aI0
aI0
aI0
aI0
aI0
aI0
aI0
aa(lp73
I0
aI0
aI0
aI0
aI0
aI0
aI0
aI0
aa(lp74
I0
aI0
aI0
aI0
aI0
aI0
aI0
aI0
aa(lp75
I0
aI0
aI0
aI0
aI0
aI0
aI0
aI0
aaa(lp76
(lp77
I0
aI0
aI0
aI1
aI1
aI0
aI0
aI0
aa(lp78
I0
aI0
aI0
aI1
aI1
aI0
aI0
aI0
aa(lp79
I0
aI0
aI0
aI1
aI1
aI0
aI0
aI0
aa(lp80
I0
aI0
aI0
aI1
aI1
aI0
aI0
aI0
aa(lp81
I0
aI0
aI0
aI1
aI1
aI0
aI0
aI0
aa(lp82
I1
aI1
aI1
aI1
aI1
aI0
aI0
aI0
aa(lp83
I1
aI1
aI1
aI1
aI1
aI0
aI0
aI0
aa(lp84
I0
aI0
aI0
aI0
aI0
aI0
aI0
aI0
aa(lp85
I0
aI0
aI0
aI0
aI0
aI0
aI0
aI0
aa(lp86
I0
aI0
aI0
aI0
aI0
aI0
aI0
aI0
aa(lp87
I0
aI0
aI0
aI0
aI0
aI0
aI0
aI0
aa(lp88
I0
aI0
aI0
aI0
aI0
aI0
aI0
aI0
aaa(lp89
(lp90
I0
aI0
aI0
aI0
aI0
aI0
aI0
aI0
aa(lp91
I0
aI0
aI0
aI0
aI0
aI0
aI0
aI0
aa(lp92
I0
aI0
aI0
aI0
aI0
aI0
aI0
aI0
aa(lp93
I0
aI0
aI0
aI0
aI0
aI0
aI0
aI0
aa(lp94
I0
aI0
aI0
aI0
aI0
aI0
aI0
aI0
aa(lp95
I0
aI0
aI0
aI0
aI0
aI0
aI0
aI0
aa(lp96
I0
aI0
aI0
aI0
aI0
aI0
aI0
aI0
aa(lp97
I0
aI0
aI0
aI0
aI0
aI0
aI0
aI0
aa(lp98
I0
aI0
aI0
aI0
aI0
aI0
aI0
aI0
aa(lp99
I0
aI0
aI0
aI0
aI0
aI0
aI0
aI0
aa(lp100
I0
aI0
aI0
aI0
aI0
aI0
aI0
aI0
aa(lp101
I0
aI0
aI0
aI0
aI0
aI0
aI0
aI0
aaa(lp102
(lp103
I0
aI0
aI0
aI0
aI0
aI0
aI0
aI0
aa(lp104
I0
aI0
aI0
aI0
aI0
aI0
aI0
aI0
aa(lp105
I0
aI0
aI0
aI0
aI0
aI0
aI0
aI0
aa(lp106
I0
aI0
aI0
aI0
aI0
aI0
aI0
aI0
aa(lp107
I0
aI0
aI0
aI0
aI0
aI0
aI0
aI0
aa(lp108
I0
aI0
aI0
aI0
aI0
aI0
aI0
aI0
aa(lp109
I0
aI0
aI0
aI0
aI0
aI0
aI0
aI0
aa(lp110
I0
aI0
aI0
aI0
aI0
aI0
aI0
aI0
aa(lp111
I0
aI0
aI0
aI0
aI0
aI0
aI0
aI0
aa(lp112
I0
aI0
aI0
aI0
aI0
aI0
aI0
aI0
aa(lp113
I0
aI0
aI0
aI0
aI0
aI0
aI0
aI0
aa(lp114
I0
aI0
aI0
aI0
aI0
aI0
aI0
aI0
aaa(lp115
(lp116
I0
aI0
aI0
aI0
aI0
aI0
aI0
aI0
aa(lp117
I0
aI0
aI0
aI0
aI0
aI0
aI0
aI0
aa(lp118
I0
aI0
aI0
aI0
aI0
aI0
aI0
aI0
aa(lp119
I0
aI0
aI0
aI0
aI0
aI0
aI0
aI0
aa(lp120
I0
aI0
aI0
aI0
aI0
aI0
aI0
aI0
aa(lp121
I0
aI0
aI0
aI0
aI0
aI0
aI0
aI0
aa(lp122
I0
aI0
aI0
aI0
aI0
aI0
aI0
aI0
aa(lp123
I0
aI0
aI0
aI0
aI0
aI0
aI0
aI0
aa(lp124
I0
aI0
aI0
aI0
aI0
aI0
aI0
aI0
aa(lp125
I0
aI0
aI0
aI0
aI0
aI0
aI0
aI0
aa(lp126
I0
aI0
aI0
aI0
aI0
aI0
aI0
aI0
aa(lp127
I0
aI0
aI0
aI0
aI0
aI0
aI0
aI0
aaa(lp128
(lp129
I0
aI0
aI0
aI0
aI0
aI0
aI0
aI0
aa(lp130
I0
aI0
aI0
aI0
aI0
aI0
aI0
aI0
aa(lp131
I0
aI0
aI0
aI0
aI0
aI0
aI0
aI0
aa(lp132
I0
aI0
aI0
aI0
aI0
aI0
aI0
aI0
aa(lp133
I0
aI0
aI0
aI0
aI0
aI0
aI0
aI0
aa(lp134
I0
aI0
aI0
aI0
aI0
aI0
aI0
aI0
aa(lp135
I0
aI0
aI0
aI0
aI0
aI0
aI0
aI0
aa(lp136
I0
aI0
aI0
aI0
aI0
aI0
aI0
aI0
aa(lp137
I0
aI0
aI0
aI0
aI0
aI0
aI0
aI0
aa(lp138
I0
aI0
aI0
aI0
aI0
aI0
aI0
aI0
aa(lp139
I0
aI0
aI0
aI0
aI0
aI0
aI0
aI0
aa(lp140
I0
aI0
aI0
aI0
aI0
aI0
aI0
aI0
aaa(lp141
(lp142
I0
aI0
aI0
aI0
aI0
aI0
aI0
aI0
aa(lp143
I0
aI0
aI0
aI0
aI0
aI0
aI0
aI0
aa(lp144
I0
aI0
aI0
aI0
aI0
aI0
aI0
aI0
aa(lp145
I0
aI0
aI0
aI0
aI0
aI0
aI0
aI0
aa(lp146
I0
aI0
aI0
aI0
aI0
aI0
aI0
aI0
aa(lp147
I0
aI0
aI0
aI0
aI0
aI0
aI0
aI0
aa(lp148
I0
aI0
aI0
aI0
aI0
aI0
aI0
aI0
aa(lp149
I0
aI0
aI0
aI0
aI0
aI0
aI0
aI0
aa(lp150
I0
aI0
aI0
aI0
aI0
aI0
aI0
aI0
aa(lp151
I0
aI0
aI0
aI0
aI0
aI0
aI0
aI0
aa(lp152
I0
aI0
aI0
aI0
aI0
aI0
aI0
aI0
aa(lp153
I0
aI0
aI0
aI0
aI0
aI0
aI0
aI0
aaa(lp154
(lp155
I0
aI0
aI0
aI0
aI0
aI0
aI0
aI0
aa(lp156
I0
aI0
aI0
aI0
aI0
aI0
aI0
aI0
aa(lp157
I0
aI0
aI0
aI0
aI0
aI0
aI0
aI0
aa(lp158
I0
aI0
aI0
aI0
aI0
aI0
aI0
aI0
aa(lp159
I0
aI0
aI0
aI0
aI0
aI0
aI0
aI0
aa(lp160
I0
aI0
aI0
aI0
aI0
aI0
aI0
aI0
aa(lp161
I0
aI0
aI0
aI0
aI0
aI0
aI0
aI0
aa(lp162
I0
aI0
aI0
aI0
aI0
aI0
aI0
aI0
aa(lp163
I0
aI0
aI0
aI0
aI0
aI0
aI0
aI0
aa(lp164
I0
aI0
aI0
aI0
aI0
aI0
aI0
aI0
aa(lp165
I0
aI0
aI0
aI0
aI0
aI0
aI0
aI0
aa(lp166
I0
aI0
aI0
aI0
aI0
aI0
aI0
aI0
aaa(lp167
(lp168
I0
aI0
aI0
aI0
aI0
aI0
aI0
aI0
aa(lp169
I0
aI0
aI0
aI0
aI0
aI0
aI0
aI0
aa(lp170
I0
aI0
aI0
aI0
aI0
aI0
aI0
aI0
aa(lp171
I0
aI0
aI0
aI0
aI0
aI0
aI0
aI0
aa(lp172
I0
aI0
aI0
aI0
aI0
aI0
aI0
aI0
aa(lp173
I0
aI0
aI0
aI0
aI0
aI0
aI0
aI0
aa(lp174
I0
aI0
aI0
aI0
aI0
aI0
aI0
aI0
aa(lp175
I0
aI0
aI0
aI0
aI0
aI0
aI0
aI0
aa(lp176
I0
aI0
aI0
aI0
aI0
aI0
aI0
aI0
aa(lp177
I0
aI0
aI0
aI0
aI0
aI0
aI0
aI0
aa(lp178
I0
aI0
aI0
aI0
aI0
aI0
aI0
aI0
aa(lp179
I0
aI0
aI0
aI0
aI0
aI0
aI0
aI0
aaa(lp180
(lp181
I0
aI0
aI0
aI0
aI0
aI0
aI0
aI0
aa(lp182
I0
aI0
aI0
aI0
aI0
aI0
aI0
aI0
aa(lp183
I0
aI0
aI0
aI0
aI0
aI0
aI0
aI0
aa(lp184
I0
aI0
aI0
aI0
aI0
aI0
aI0
aI0
aa(lp185
I0
aI0
aI0
aI0
aI0
aI0
aI0
aI0
aa(lp186
I0
aI0
aI0
aI0
aI0
aI0
aI0
aI0
aa(lp187
I0
aI0
aI0
aI0
aI0
aI0
aI0
aI0
aa(lp188
I0
aI0
aI0
aI0
aI0
aI0
aI0
aI0
aa(lp189
I0
aI0
aI0
aI0
aI0
aI0
aI0
aI0
aa(lp190
I0
aI0
aI0
aI0
aI0
aI0
aI0
aI0
aa(lp191
I0
aI0
aI0
aI0
aI0
aI0
aI0
aI0
aa(lp192
I0
aI0
aI0
aI0
aI0
aI0
aI0
aI0
aaa(lp193
(lp194
I0
aI0
aI0
aI0
aI0
aI0
aI0
aI0
aa(lp195
I0
aI0
aI0
aI0
aI0
aI0
aI0
aI0
aa(lp196
I0
aI0
aI0
aI0
aI0
aI0
aI0
aI0
aa(lp197
I0
aI0
aI0
aI0
aI0
aI0
aI0
aI0
aa(lp198
I0
aI0
aI0
aI0
aI0
aI0
aI0
aI0
aa(lp199
I0
aI0
aI0
aI0
aI0
aI0
aI0
aI0
aa(lp200
I0
aI0
aI0
aI0
aI0
aI0
aI0
aI0
aa(lp201
I0
aI0
aI0
aI0
aI0
aI0
aI0
aI0
aa(lp202
I0
aI0
aI0
aI0
aI0
aI0
aI0
aI0
aa(lp203
I0
aI0
aI0
aI0
aI0
aI0
aI0
aI0
aa(lp204
I0
aI0
aI0
aI0
aI0
aI0
aI0
aI0
aa(lp205
I0
aI0
aI0
aI0
aI0
aI0
aI0
aI0
aaa(lp206
(lp207
I0
aI0
aI0
aI0
aI0
aI0
aI0
aI0
aa(lp208
I0
aI0
aI0
aI0
aI0
aI0
aI0
aI0
aa(lp209
I0
aI0
aI0
aI0
aI0
aI0
aI0
aI0
aa(lp210
I0
aI0
aI0
aI0
aI0
aI0
aI0
aI0
aa(lp211
I0
aI0
aI0
aI0
aI0
aI0
aI0
aI0
aa(lp212
I0
aI0
aI0
aI0
aI0
aI0
aI0
aI0
aa(lp213
I0
aI0
aI0
aI0
aI0
aI0
aI0
aI0
aa(lp214
I0
aI0
aI0
aI0
aI0
aI0
aI0
aI0
aa(lp215
I0
aI0
aI0
aI0
aI0
aI0
aI0
aI0
aa(lp216
I0
aI0
aI0
aI0
aI0
aI0
aI0
aI0
aa(lp217
I0
aI0
aI0
aI0
aI0
aI0
aI0
aI0
aa(lp218
I0
aI0
aI0
aI0
aI0
aI0
aI0
aI0
aaa(lp219
(lp220
I0
aI0
aI0
aI0
aI0
aI0
aI0
aI0
aa(lp221
I0
aI0
aI0
aI0
aI0
aI0
aI0
aI0
aa(lp222
I0
aI0
aI0
aI0
aI0
aI0
aI0
aI0
aa(lp223
I0
aI0
aI0
aI0
aI0
aI0
aI0
aI0
aa(lp224
I0
aI0
aI0
aI0
aI0
aI0
aI0
aI0
aa(lp225
I0
aI0
aI0
aI0
aI0
aI0
aI0
aI0
aa(lp226
I0
aI0
aI0
aI0
aI0
aI0
aI0
aI0
aa(lp227
I0
aI0
aI0
aI0
aI0
aI0
aI0
aI0
aa(lp228
I0
aI0
aI0
aI0
aI0
aI0
aI0
aI0
aa(lp229
I0
aI0
aI0
aI0
aI0
aI0
aI0
aI0
aa(lp230
I0
aI0
aI0
aI0
aI0
aI0
aI0
aI0
aa(lp231
I0
aI0
aI0
aI0
aI0
aI0
aI0
aI0
aaa(lp232
(lp233
I0
aI0
aI0
aI0
aI0
aI0
aI0
aI0
aa(lp234
I0
aI0
aI0
aI0
aI0
aI0
aI0
aI0
aa(lp235
I0
aI0
aI0
aI0
aI0
aI0
aI0
aI0
aa(lp236
I0
aI0
aI0
aI0
aI0
aI0
aI0
aI0
aa(lp237
I0
aI0
aI0
aI0
aI0
aI0
aI0
aI0
aa(lp238
I0
aI0
aI0
aI0
aI0
aI0
aI0
aI0
aa(lp239
I0
aI0
aI0
aI0
aI0
aI0
aI0
aI0
aa(lp240
I0
aI0
aI0
aI0
aI0
aI0
aI0
aI0
aa(lp241
I0
aI0
aI0
aI0
aI0
aI0
aI0
aI0
aa(lp242
I0
aI0
aI0
aI0
aI0
aI0
aI0
aI0
aa(lp243
I0
aI0
aI0
aI0
aI0
aI0
aI0
aI0
aa(lp244
I0
aI0
aI0
aI0
aI0
aI0
aI0
aI0
aaa(lp245
(lp246
I0
aI0
aI0
aI0
aI0
aI0
aI0
aI0
aa(lp247
I0
aI0
aI0
aI0
aI0
aI0
aI0
aI0
aa(lp248
I0
aI0
aI0
aI0
aI0
aI0
aI0
aI0
aa(lp249
I0
aI0
aI0
aI0
aI0
aI0
aI0
aI0
aa(lp250
I0
aI0
aI0
aI0
aI0
aI0
aI0
aI0
aa(lp251
I0
aI0
aI0
aI0
aI0
aI0
aI0
aI0
aa(lp252
I0
aI0
aI0
aI0
aI0
aI0
aI0
aI0
aa(lp253
I0
aI0
aI0
aI0
aI0
aI0
aI0
aI0
aa(lp254
I0
aI0
aI0
aI0
aI0
aI0
aI0
aI0
aa(lp255
I0
aI0
aI0
aI0
aI0
aI0
aI0
aI0
aa(lp256
I0
aI0
aI0
aI0
aI0
aI0
aI0
aI0
aa(lp257
I0
aI0
aI0
aI0
aI0
aI0
aI0
aI0
aaa(lp258
(lp259
I0
aI0
aI0
aI0
aI0
aI0
aI0
aI0
aa(lp260
I0
aI0
aI0
aI0
aI0
aI0
aI0
aI0
aa(lp261
I0
aI0
aI0
aI0
aI0
aI0
aI0
aI0
aa(lp262
I0
aI0
aI0
aI0
aI0
aI0
aI0
aI0
aa(lp263
I0
aI0
aI0
aI0
aI0
aI0
aI0
aI0
aa(lp264
I0
aI0
aI0
aI0
aI0
aI0
aI0
aI0
aa(lp265
I0
aI0
aI0
aI0
aI0
aI0
aI0
aI0
aa(lp266
I0
aI0
aI0
aI0
aI0
aI0
aI0
aI0
aa(lp267
I0
aI0
aI0
aI0
aI0
aI0
aI0
aI0
aa(lp268
I0
aI0
aI0
aI0
aI0
aI0
aI0
aI0
aa(lp269
I0
aI0
aI0
aI0
aI0
aI0
aI0
aI0
aa(lp270
I0
aI0
aI0
aI0
aI0
aI0
aI0
aI0
aaa(lp271
(lp272
I0
aI0
aI0
aI0
aI0
aI0
aI0
aI0
aa(lp273
I0
aI0
aI0
aI0
aI0
aI0
aI0
aI0
aa(lp274
I0
aI0
aI0
aI0
aI0
aI0
aI0
aI0
aa(lp275
I0
aI0
aI0
aI0
aI0
aI0
aI0
aI0
aa(lp276
I0
aI0
aI0
aI0
aI0
aI0
aI0
aI0
aa(lp277
I0
aI0
aI0
aI0
aI0
aI0
aI0
aI0
aa(lp278
I0
aI0
aI0
aI0
aI0
aI0
aI0
aI0
aa(lp279
I0
aI0
aI0
aI0
aI0
aI0
aI0
aI0
aa(lp280
I0
aI0
aI0
aI0
aI0
aI0
aI0
aI0
aa(lp281
I0
aI0
aI0
aI0
aI0
aI0
aI0
aI0
aa(lp282
I0
aI0
aI0
aI0
aI0
aI0
aI0
aI0
aa(lp283
I0
aI0
aI0
aI0
aI0
aI0
aI0
aI0
aaa(lp284
(lp285
I0
aI0
aI0
aI0
aI0
aI0
aI0
aI0
aa(lp286
I0
aI0
aI0
aI0
aI0
aI0
aI0
aI0
aa(lp287
I0
aI0
aI0
aI0
aI0
aI0
aI0
aI0
aa(lp288
I0
aI0
aI0
aI0
aI0
aI0
aI0
aI0
aa(lp289
I0
aI0
aI0
aI0
aI0
aI0
aI0
aI0
aa(lp290
I0
aI0
aI0
aI0
aI0
aI0
aI0
aI0
aa(lp291
I0
aI0
aI0
aI0
aI0
aI0
aI0
aI0
aa(lp292
I0
aI0
aI0
aI0
aI0
aI0
aI0
aI0
aa(lp293
I0
aI0
aI0
aI0
aI0
aI0
aI0
aI0
aa(lp294
I0
aI0
aI0
aI0
aI0
aI0
aI0
aI0
aa(lp295
I0
aI0
aI0
aI0
aI0
aI0
aI0
aI0
aa(lp296
I0
aI0
aI0
aI0
aI0
aI0
aI0
aI0
aaa(lp297
(lp298
I0
aI0
aI0
aI0
aI0
aI0
aI0
aI0
aa(lp299
I0
aI0
aI0
aI0
aI0
aI0
aI0
aI0
aa(lp300
I0
aI0
aI0
aI0
aI0
aI0
aI0
aI0
aa(lp301
I0
aI0
aI0
aI0
aI0
aI0
aI0
aI0
aa(lp302
I0
aI0
aI0
aI0
aI0
aI0
aI0
aI0
aa(lp303
I0
aI0
aI0
aI0
aI0
aI0
aI0
aI0
aa(lp304
I0
aI0
aI0
aI0
aI0
aI0
aI0
aI0
aa(lp305
I0
aI0
aI0
aI0
aI0
aI0
aI0
aI0
aa(lp306
I0
aI0
aI0
aI0
aI0
aI0
aI0
aI0
aa(lp307
I0
aI0
aI0
aI0
aI0
aI0
aI0
aI0
aa(lp308
I0
aI0
aI0
aI0
aI0
aI0
aI0
aI0
aa(lp309
I0
aI0
aI0
aI0
aI0
aI0
aI0
aI0
aaa(lp310
(lp311
I0
aI0
aI0
aI0
aI0
aI0
aI0
aI0
aa(lp312
I0
aI0
aI0
aI0
aI0
aI0
aI0
aI0
aa(lp313
I0
aI0
aI0
aI0
aI0
aI0
aI0
aI0
aa(lp314
I0
aI0
aI0
aI0
aI0
aI0
aI0
aI0
aa(lp315
I0
aI0
aI0
aI0
aI0
aI0
aI0
aI0
aa(lp316
I0
aI0
aI0
aI0
aI0
aI0
aI0
aI0
aa(lp317
I0
aI0
aI0
aI0
aI0
aI0
aI0
aI0
aa(lp318
I0
aI0
aI0
aI0
aI0
aI0
aI0
aI0
aa(lp319
I0
aI0
aI0
aI0
aI0
aI0
aI0
aI0
aa(lp320
I0
aI0
aI0
aI0
aI0
aI0
aI0
aI0
aa(lp321
I0
aI0
aI0
aI0
aI0
aI0
aI0
aI0
aa(lp322
I0
aI0
aI0
aI0
aI0
aI0
aI0
aI0
aaa(lp323
(lp324
I0
aI0
aI0
aI0
aI0
aI0
aI0
aI0
aa(lp325
I0
aI0
aI0
aI0
aI0
aI0
aI0
aI0
aa(lp326
I0
aI0
aI0
aI0
aI0
aI0
aI0
aI0
aa(lp327
I0
aI0
aI0
aI0
aI0
aI0
aI0
aI0
aa(lp328
I0
aI0
aI0
aI0
aI0
aI0
aI0
aI0
aa(lp329
I0
aI0
aI0
aI0
aI0
aI0
aI0
aI0
aa(lp330
I0
aI0
aI0
aI0
aI0
aI0
aI0
aI0
aa(lp331
I0
aI0
aI0
aI0
aI0
aI0
aI0
aI0
aa(lp332
I0
aI0
aI0
aI0
aI0
aI0
aI0
aI0
aa(lp333
I0
aI0
aI0
aI0
aI0
aI0
aI0
aI0
aa(lp334
I0
aI0
aI0
aI0
aI0
aI0
aI0
aI0
aa(lp335
I0
aI0
aI0
aI0
aI0
aI0
aI0
aI0
aaa(lp336
(lp337
I0
aI0
aI0
aI0
aI0
aI0
aI0
aI0
aa(lp338
I0
aI0
aI0
aI0
aI0
aI0
aI0
aI0
aa(lp339
I0
aI0
aI0
aI0
aI0
aI0
aI0
aI0
aa(lp340
I0
aI0
aI0
aI0
aI0
aI0
aI0
aI0
aa(lp341
I0
aI0
aI0
aI0
aI0
aI0
aI0
aI0
aa(lp342
I0
aI0
aI0
aI0
aI0
aI0
aI0
aI0
aa(lp343
I0
aI0
aI0
aI0
aI0
aI0
aI0
aI0
aa(lp344
I0
aI0
aI0
aI0
aI0
aI0
aI0
aI0
aa(lp345
I0
aI0
aI0
aI0
aI0
aI0
aI0
aI0
aa(lp346
I0
aI0
aI0
aI0
aI0
aI0
aI0
aI0
aa(lp347
I0
aI0
aI0
aI0
aI0
aI0
aI0
aI0
aa(lp348
I0
aI0
aI0
aI0
aI0
aI0
aI0
aI0
aaa(lp349
(lp350
I0
aI0
aI0
aI0
aI0
aI0
aI0
aI0
aa(lp351
I0
aI0
aI0
aI0
aI0
aI0
aI0
aI0
aa(lp352
I0
aI0
aI0
aI0
aI0
aI0
aI0
aI0
aa(lp353
I0
aI0
aI0
aI0
aI0
aI0
aI0
aI0
aa(lp354
I0
aI0
aI0
aI0
aI0
aI0
aI0
aI0
aa(lp355
I0
aI0
aI0
aI0
aI0
aI0
aI0
aI0
aa(lp356
I0
aI0
aI0
aI0
aI0
aI0
aI0
aI0
aa(lp357
I0
aI0
aI0
aI0
aI0
aI0
aI0
aI0
aa(lp358
I0
aI0
aI0
aI0
aI0
aI0
aI0
aI0
aa(lp359
I0
aI0
aI0
aI0
aI0
aI0
aI0
aI0
aa(lp360
I0
aI0
aI0
aI0
aI0
aI0
aI0
aI0
aa(lp361
I0
aI0
aI0
aI0
aI0
aI0
aI0
aI0
aaa(lp362
(lp363
I0
aI0
aI0
aI0
aI0
aI0
aI0
aI0
aa(lp364
I0
aI0
aI0
aI0
aI0
aI0
aI0
aI0
aa(lp365
I0
aI0
aI0
aI0
aI0
aI0
aI0
aI0
aa(lp366
I0
aI0
aI0
aI0
aI0
aI0
aI0
aI0
aa(lp367
I0
aI0
aI0
aI0
aI0
aI0
aI0
aI0
aa(lp368
I0
aI0
aI0
aI0
aI0
aI0
aI0
aI0
aa(lp369
I0
aI0
aI0
aI0
aI0
aI0
aI0
aI0
aa(lp370
I0
aI0
aI0
aI0
aI0
aI0
aI0
aI0
aa(lp371
I0
aI0
aI0
aI0
aI0
aI0
aI0
aI0
aa(lp372
I0
aI0
aI0
aI0
aI0
aI0
aI0
aI0
aa(lp373
I0
aI0
aI0
aI0
aI0
aI0
aI0
aI0
aa(lp374
I0
aI0
aI0
aI0
aI0
aI0
aI0
aI0
aaa(lp375
(lp376
I0
aI0
aI0
aI0
aI0
aI0
aI0
aI0
aa(lp377
I0
aI0
aI0
aI0
aI0
aI0
aI0
aI0
aa(lp378
I0
aI0
aI0
aI0
aI0
aI0
aI0
aI0
aa(lp379
I0
aI0
aI0
aI0
aI0
aI0
aI0
aI0
aa(lp380
I0
aI0
aI0
aI0
aI0
aI0
aI0
aI0
aa(lp381
I0
aI0
aI0
aI0
aI0
aI0
aI0
aI0
aa(lp382
I0
aI0
aI0
aI0
aI0
aI0
aI0
aI0
aa(lp383
I0
aI0
aI0
aI0
aI0
aI0
aI0
aI0
aa(lp384
I0
aI0
aI0
aI0
aI0
aI0
aI0
aI0
aa(lp385
I0
aI0
aI0
aI0
aI0
aI0
aI0
aI0
aa(lp386
I0
aI0
aI0
aI0
aI0
aI0
aI0
aI0
aa(lp387
I0
aI0
aI0
aI0
aI0
aI0
aI0
aI0
aaa(lp388
(lp389
I0
aI0
aI0
aI0
aI0
aI0
aI0
aI0
aa(lp390
I0
aI0
aI0
aI0
aI0
aI0
aI0
aI0
aa(lp391
I0
aI0
aI0
aI0
aI0
aI0
aI0
aI0
aa(lp392
I0
aI0
aI0
aI0
aI0
aI0
aI0
aI0
aa(lp393
I0
aI0
aI0
aI0
aI0
aI0
aI0
aI0
aa(lp394
I0
aI0
aI0
aI0
aI0
aI0
aI0
aI0
aa(lp395
I0
aI0
aI0
aI0
aI0
aI0
aI0
aI0
aa(lp396
I0
aI0
aI0
aI0
aI0
aI0
aI0
aI0
aa(lp397
I0
aI0
aI0
aI0
aI0
aI0
aI0
aI0
aa(lp398
I0
aI0
aI0
aI0
aI0
aI0
aI0
aI0
aa(lp399
I0
aI0
aI0
aI0
aI0
aI0
aI0
aI0
aa(lp400
I0
aI0
aI0
aI0
aI0
aI0
aI0
aI0
aaa(lp401
(lp402
I0
aI0
aI0
aI0
aI0
aI0
aI0
aI0
aa(lp403
I0
aI0
aI0
aI0
aI0
aI0
aI0
aI0
aa(lp404
I0
aI0
aI0
aI0
aI0
aI0
aI0
aI0
aa(lp405
I0
aI0
aI0
aI0
aI0
aI0
aI0
aI0
aa(lp406
I0
aI0
aI0
aI0
aI0
aI0
aI0
aI0
aa(lp407
I0
aI0
aI0
aI0
aI0
aI0
aI0
aI0
aa(lp408
I0
aI0
aI0
aI0
aI0
aI0
aI0
aI0
aa(lp409
I0
aI0
aI0
aI0
aI0
aI0
aI0
aI0
aa(lp410
I0
aI0
aI0
aI0
aI0
aI0
aI0
aI0
aa(lp411
I0
aI0
aI0
aI0
aI0
aI0
aI0
aI0
aa(lp412
I0
aI0
aI0
aI0
aI0
aI0
aI0
aI0
aa(lp413
I0
aI0
aI0
aI0
aI0
aI0
aI0
aI0
aaa(lp414
(lp415
I0
aI0
aI0
aI0
aI0
aI0
aI0
aI0
aa(lp416
I0
aI0
aI0
aI0
aI0
aI0
aI0
aI0
aa(lp417
I0
aI0
aI0
aI0
aI0
aI0
aI0
aI0
aa(lp418
I0
aI0
aI0
aI0
aI0
aI0
aI0
aI0
aa(lp419
I0
aI0
aI0
aI0
aI0
aI0
aI0
aI0
aa(lp420
I0
aI0
aI0
aI0
aI0
aI0
aI0
aI0
aa(lp421
I0
aI0
aI0
aI0
aI0
aI0
aI0
aI0
aa(lp422
I0
aI0
aI0
aI0
aI0
aI0
aI0
aI0
aa(lp423
I0
aI0
aI0
aI0
aI0
aI0
aI0
aI0
aa(lp424
I0
aI0
aI0
aI0
aI0
aI0
aI0
aI0
aa(lp425
I0
aI0
aI0
aI0
aI0
aI0
aI0
aI0
aa(lp426
I0
aI0
aI0
aI0
aI0
aI0
aI0
aI0
aaa(lp427
(lp428
I0
aI0
aI0
aI0
aI0
aI0
aI0
aI0
aa(lp429
I0
aI0
aI0
aI0
aI0
aI0
aI0
aI0
aa(lp430
I0
aI0
aI0
aI0
aI0
aI0
aI0
aI0
aa(lp431
I0
aI0
aI0
aI0
aI0
aI0
aI0
aI0
aa(lp432
I0
aI0
aI0
aI0
aI0
aI0
aI0
aI0
aa(lp433
I0
aI0
aI0
aI0
aI0
aI0
aI0
aI0
aa(lp434
I0
aI0
aI0
aI0
aI0
aI0
aI0
aI0
aa(lp435
I0
aI0
aI0
aI0
aI0
aI0
aI0
aI0
aa(lp436
I0
aI0
aI0
aI0
aI0
aI0
aI0
aI0
aa(lp437
I0
aI0
aI0
aI0
aI0
aI0
aI0
aI0
aa(lp438
I0
aI0
aI0
aI0
aI0
aI0
aI0
aI0
aa(lp439
I0
aI0
aI0
aI0
aI0
aI0
aI0
aI0
aaa(lp440
(lp441
I0
aI0
aI0
aI1
aI0
aI0
aI0
aI0
aa(lp442
I0
aI0
aI0
aI1
aI0
aI0
aI0
aI0
aa(lp443
I0
aI0
aI0
aI1
aI0
aI0
aI0
aI0
aa(lp444
I0
aI0
aI0
aI1
aI0
aI0
aI0
aI0
aa(lp445
I0
aI0
aI0
aI1
aI0
aI0
aI0
aI0
aa(lp446
I0
aI0
aI0
aI1
aI0
aI0
aI0
aI0
aa(lp447
I0
aI0
aI0
aI1
aI0
aI0
aI0
aI0
aa(lp448
I0
aI0
aI0
aI0
aI0
aI0
aI0
aI0
aa(lp449
I0
aI0
aI0
aI0
aI0
aI0
aI0
aI0
aa(lp450
I0
aI0
aI0
aI1
aI0
aI0
aI0
aI0
aa(lp451
I0
aI0
aI0
aI1
aI0
aI0
aI0
aI0
aa(lp452
I0
aI0
aI0
aI0
aI0
aI0
aI0
aI0
aaa(lp453
(lp454
I0
aI0
aI1
aI0
aI1
aI0
aI0
aI0
aa(lp455
I0
aI0
aI1
aI0
aI1
aI0
aI0
aI0
aa(lp456
I0
aI0
aI1
aI0
aI1
aI0
aI0
aI0
aa(lp457
I0
aI0
aI0
aI0
aI0
aI0
aI0
aI0
aa(lp458
I0
aI0
aI0
aI0
aI0
aI0
aI0
aI0
aa(lp459
I0
aI0
aI0
aI0
aI0
aI0
aI0
aI0
aa(lp460
I0
aI0
aI0
aI0
aI0
aI0
aI0
aI0
aa(lp461
I0
aI0
aI0
aI0
aI0
aI0
aI0
aI0
aa(lp462
I0
aI0
aI0
aI0
aI0
aI0
aI0
aI0
aa(lp463
I0
aI0
aI0
aI0
aI0
aI0
aI0
aI0
aa(lp464
I0
aI0
aI0
aI0
aI0
aI0
aI0
aI0
aa(lp465
I0
aI0
aI0
aI0
aI0
aI0
aI0
aI0
aaa(lp466
(lp467
I0
aI1
aI0
aI0
aI0
aI1
aI0
aI0
aa(lp468
I0
aI1
aI0
aI0
aI0
aI1
aI0
aI0
aa(lp469
I0
aI1
aI0
aI0
aI0
aI1
aI0
aI0
aa(lp470
I1
aI1
aI1
aI1
aI1
aI1
aI1
aI0
aa(lp471
I0
aI1
aI0
aI0
aI0
aI1
aI0
aI0
aa(lp472
I0
aI1
aI0
aI0
aI0
aI1
aI0
aI0
aa(lp473
I0
aI1
aI0
aI0
aI0
aI1
aI0
aI0
aa(lp474
I1
aI1
aI1
aI1
aI1
aI1
aI1
aI0
aa(lp475
I0
aI1
aI0
aI0
aI0
aI1
aI0
aI0
aa(lp476
I0
aI1
aI0
aI0
aI0
aI1
aI0
aI0
aa(lp477
I0
aI1
aI0
aI0
aI0
aI1
aI0
aI0
aa(lp478
I0
aI0
aI0
aI0
aI0
aI0
aI0
aI0
aaa(lp479
(lp480
I0
aI0
aI0
aI1
aI0
aI0
aI0
aI0
aa(lp481
I0
aI1
aI1
aI1
aI1
aI1
aI0
aI0
aa(lp482
I1
aI0
aI0
aI1
aI0
aI0
aI1
aI0
aa(lp483
I1
aI0
aI0
aI1
aI0
aI0
aI0
aI0
aa(lp484
I1
aI0
aI0
aI1
aI0
aI0
aI0
aI0
aa(lp485
I0
aI1
aI1
aI1
aI1
aI1
aI0
aI0
aa(lp486
I0
aI0
aI0
aI1
aI0
aI0
aI1
aI0
aa(lp487
I0
aI0
aI0
aI1
aI0
aI0
aI1
aI0
aa(lp488
I1
aI0
aI0
aI1
aI0
aI0
aI1
aI0
aa(lp489
I0
aI1
aI1
aI1
aI1
aI1
aI0
aI0
aa(lp490
I0
aI0
aI0
aI1
aI0
aI0
aI0
aI0
aa(lp491
I0
aI0
aI0
aI0
aI0
aI0
aI0
aI0
aaa(lp492
(lp493
I0
aI0
aI0
aI0
aI0
aI0
aI1
aI0
aa(lp494
I1
aI1
aI1
aI0
aI0
aI0
aI1
aI0
aa(lp495
I1
aI0
aI1
aI0
aI0
aI1
aI0
aI0
aa(lp496
I1
aI1
aI1
aI0
aI0
aI1
aI0
aI0
aa(lp497
I0
aI0
aI0
aI0
aI1
aI0
aI0
aI0
aa(lp498
I0
aI0
aI0
aI1
aI0
aI0
aI0
aI0
aa(lp499
I0
aI0
aI1
aI0
aI0
aI0
aI0
aI0
aa(lp500
I0
aI1
aI0
aI0
aI1
aI1
aI1
aI0
aa(lp501
I0
aI1
aI0
aI0
aI1
aI0
aI1
aI0
aa(lp502
I1
aI0
aI0
aI0
aI1
aI1
aI1
aI0
aa(lp503
I1
aI0
aI0
aI0
aI0
aI0
aI0
aI0
aa(lp504
I0
aI0
aI0
aI0
aI0
aI0
aI0
aI0
aaa(lp505
(lp506
I0
aI0
aI1
aI1
aI1
aI1
aI0
aI0
aa(lp507
I0
aI1
aI0
aI0
aI0
aI0
aI1
aI0
aa(lp508
I0
aI1
aI0
aI0
aI0
aI1
aI0
aI0
aa(lp509
I0
aI0
aI1
aI0
aI1
aI0
aI0
aI0
aa(lp510
I0
aI0
aI1
aI1
aI0
aI0
aI0
aI0
aa(lp511
I0
aI1
aI0
aI1
aI0
aI0
aI0
aI0
aa(lp512
I1
aI0
aI0
aI0
aI1
aI0
aI0
aI0
aa(lp513
I1
aI0
aI0
aI0
aI1
aI0
aI1
aI0
aa(lp514
I1
aI0
aI0
aI0
aI0
aI1
aI1
aI0
aa(lp515
I0
aI1
aI0
aI0
aI0
aI1
aI0
aI0
aa(lp516
I0
aI0
aI1
aI1
aI1
aI0
aI1
aI0
aa(lp517
I0
aI0
aI0
aI0
aI0
aI0
aI0
aI0
aaa(lp518
(lp519
I0
aI0
aI0
aI1
aI0
aI0
aI0
aI0
aa(lp520
I0
aI0
aI0
aI1
aI0
aI0
aI0
aI0
aa(lp521
I0
aI0
aI0
aI1
aI0
aI0
aI0
aI0
aa(lp522
I0
aI0
aI0
aI0
aI0
aI0
aI0
aI0
aa(lp523
I0
aI0
aI0
aI0
aI0
aI0
aI0
aI0
aa(lp524
I0
aI0
aI0
aI0
aI0
aI0
aI0
aI0
aa(lp525
I0
aI0
aI0
aI0
aI0
aI0
aI0
aI0
aa(lp526
I0
aI0
aI0
aI0
aI0
aI0
aI0
aI0
aa(lp527
I0
aI0
aI0
aI0
aI0
aI0
aI0
aI0
aa(lp528
I0
aI0
aI0
aI0
aI0
aI0
aI0
aI0
aa(lp529
I0
aI0
aI0
aI0
aI0
aI0
aI0
aI0
aa(lp530
I0
aI0
aI0
aI0
aI0
aI0
aI0
aI0
aaa(lp531
(lp532
I0
aI0
aI0
aI0
aI1
aI1
aI0
aI0
aa(lp533
I0
aI0
aI0
aI1
aI0
aI0
aI0
aI0
aa(lp534
I0
aI0
aI1
aI0
aI0
aI0
aI0
aI0
aa(lp535
I0
aI0
aI1
aI0
aI0
aI0
aI0
aI0
aa(lp536
I0
aI1
aI0
aI0
aI0
aI0
aI0
aI0
aa(lp537
I0
aI1
aI0
aI0
aI0
aI0
aI0
aI0
aa(lp538
I0
aI1
aI0
aI0
aI0
aI0
aI0
aI0
aa(lp539
I0
aI0
aI1
aI0
aI0
aI0
aI0
aI0
aa(lp540
I0
aI0
aI1
aI0
aI0
aI0
aI0
aI0
aa(lp541
I0
aI0
aI0
aI1
aI0
aI0
aI0
aI0
aa(lp542
I0
aI0
aI0
aI0
aI1
aI1
aI0
aI0
aa(lp543
I0
aI0
aI0
aI0
aI0
aI0
aI0
aI0
aaa(lp544
(lp545
I0
aI1
aI1
aI0
aI0
aI0
aI0
aI0
aa(lp546
I0
aI0
aI0
aI1
aI0
aI0
aI0
aI0
aa(lp547
I0
aI0
aI0
aI0
aI1
aI0
aI0
aI0
aa(lp548
I0
aI0
aI0
aI0
aI1
aI0
aI0
aI0
aa(lp549
I0
aI0
aI0
aI0
aI0
aI1
aI0
aI0
aa(lp550
I0
aI0
aI0
aI0
aI0
aI1
aI0
aI0
aa(lp551
I0
aI0
aI0
aI0
aI0
aI1
aI0
aI0
aa(lp552
I0
aI0
aI0
aI0
aI1
aI0
aI0
aI0
aa(lp553
I0
aI0
aI0
aI0
aI1
aI0
aI0
aI0
aa(lp554
I0
aI0
aI0
aI1
aI0
aI0
aI0
aI0
aa(lp555
I0
aI1
aI1
aI0
aI0
aI0
aI0
aI0
aa(lp556
I0
aI0
aI0
aI0
aI0
aI0
aI0
aI0
aaa(lp557
(lp558
I0
aI0
aI0
aI0
aI0
aI0
aI0
aI0
aa(lp559
I0
aI0
aI0
aI1
aI0
aI0
aI0
aI0
aa(lp560
I1
aI0
aI0
aI1
aI0
aI0
aI1
aI0
aa(lp561
I0
aI1
aI0
aI1
aI0
aI1
aI0
aI0
aa(lp562
I0
aI0
aI1
aI1
aI1
aI0
aI0
aI0
aa(lp563
I1
aI1
aI1
aI1
aI1
aI1
aI1
aI0
aa(lp564
I0
aI0
aI1
aI1
aI1
aI0
aI0
aI0
aa(lp565
I0
aI1
aI0
aI1
aI0
aI1
aI0
aI0
aa(lp566
I1
aI0
aI0
aI1
aI0
aI0
aI1
aI0
aa(lp567
I0
aI0
aI0
aI1
aI0
aI0
aI0
aI0
aa(lp568
I0
aI0
aI0
aI0
aI0
aI0
aI0
aI0
aa(lp569
I0
aI0
aI0
aI0
aI0
aI0
aI0
aI0
aaa(lp570
(lp571
I0
aI0
aI0
aI0
aI0
aI0
aI0
aI0
aa(lp572
I0
aI0
aI0
aI1
aI0
aI0
aI0
aI0
aa(lp573
I0
aI0
aI0
aI1
aI0
aI0
aI0
aI0
aa(lp574
I0
aI0
aI0
aI1
aI0
aI0
aI0
aI0
aa(lp575
I0
aI0
aI0
aI1
aI0
aI0
aI0
aI0
aa(lp576
I0
aI1
aI1
aI1
aI1
aI1
aI0
aI0
aa(lp577
I0
aI0
aI0
aI1
aI0
aI0
aI0
aI0
aa(lp578
I0
aI0
aI0
aI1
aI0
aI0
aI0
aI0
aa(lp579
I0
aI0
aI0
aI1
aI0
aI0
aI0
aI0
aa(lp580
I0
aI0
aI0
aI1
aI0
aI0
aI0
aI0
aa(lp581
I0
aI0
aI0
aI0
aI0
aI0
aI0
aI0
aa(lp582
I0
aI0
aI0
aI0
aI0
aI0
aI0
aI0
aaa(lp583
(lp584
I0
aI0
aI0
aI0
aI0
aI0
aI0
aI0
aa(lp585
I0
aI0
aI0
aI0
aI0
aI0
aI0
aI0
aa(lp586
I0
aI0
aI0
aI0
aI0
aI0
aI0
aI0
aa(lp587
I0
aI0
aI0
aI0
aI0
aI0
aI0
aI0
aa(lp588
I0
aI0
aI0
aI0
aI0
aI0
aI0
aI0
aa(lp589
I0
aI0
aI0
aI0
aI0
aI0
aI0
aI0
aa(lp590
I0
aI0
aI0
aI0
aI0
aI0
aI0
aI0
aa(lp591
I0
aI0
aI0
aI0
aI0
aI0
aI0
aI0
aa(lp592
I0
aI0
aI0
aI0
aI0
aI0
aI0
aI0
aa(lp593
I0
aI0
aI0
aI0
aI1
aI0
aI0
aI0
aa(lp594
I0
aI0
aI0
aI0
aI1
aI0
aI0
aI0
aa(lp595
I0
aI0
aI0
aI1
aI0
aI0
aI0
aI0
aaa(lp596
(lp597
I0
aI0
aI0
aI0
aI0
aI0
aI0
aI0
aa(lp598
I0
aI0
aI0
aI0
aI0
aI0
aI0
aI0
aa(lp599
I0
aI0
aI0
aI0
aI0
aI0
aI0
aI0
aa(lp600
I0
aI0
aI0
aI0
aI0
aI0
aI0
aI0
aa(lp601
I0
aI0
aI0
aI0
aI0
aI0
aI0
aI0
aa(lp602
I0
aI1
aI1
aI1
aI1
aI1
aI0
aI0
aa(lp603
I0
aI0
aI0
aI0
aI0
aI0
aI0
aI0
aa(lp604
I0
aI0
aI0
aI0
aI0
aI0
aI0
aI0
aa(lp605
I0
aI0
aI0
aI0
aI0
aI0
aI0
aI0
aa(lp606
I0
aI0
aI0
aI0
aI0
aI0
aI0
aI0
aa(lp607
I0
aI0
aI0
aI0
aI0
aI0
aI0
aI0
aa(lp608
I0
aI0
aI0
aI0
aI0
aI0
aI0
aI0
aaa(lp609
(lp610
I0
aI0
aI0
aI0
aI0
aI0
aI0
aI0
aa(lp611
I0
aI0
aI0
aI0
aI0
aI0
aI0
aI0
aa(lp612
I0
aI0
aI0
aI0
aI0
aI0
aI0
aI0
aa(lp613
I0
aI0
aI0
aI0
aI0
aI0
aI0
aI0
aa(lp614
I0
aI0
aI0
aI0
aI0
aI0
aI0
aI0
aa(lp615
I0
aI0
aI0
aI0
aI0
aI0
aI0
aI0
aa(lp616
I0
aI0
aI0
aI0
aI0
aI0
aI0
aI0
aa(lp617
I0
aI0
aI0
aI0
aI0
aI0
aI0
aI0
aa(lp618
I0
aI0
aI0
aI0
aI0
aI0
aI0
aI0
aa(lp619
I0
aI0
aI0
aI1
aI1
aI0
aI0
aI0
aa(lp620
I0
aI0
aI0
aI1
aI1
aI0
aI0
aI0
aa(lp621
I0
aI0
aI0
aI0
aI0
aI0
aI0
aI0
aaa(lp622
(lp623
I0
aI0
aI0
aI0
aI0
aI0
aI1
aI0
aa(lp624
I0
aI0
aI0
aI0
aI0
aI0
aI1
aI0
aa(lp625
I0
aI0
aI0
aI0
aI0
aI1
aI0
aI0
aa(lp626
I0
aI0
aI0
aI0
aI0
aI1
aI0
aI0
aa(lp627
I0
aI0
aI0
aI0
aI1
aI0
aI0
aI0
aa(lp628
I0
aI0
aI0
aI1
aI0
aI0
aI0
aI0
aa(lp629
I0
aI0
aI1
aI0
aI0
aI0
aI0
aI0
aa(lp630
I0
aI1
aI0
aI0
aI0
aI0
aI0
aI0
aa(lp631
I0
aI1
aI0
aI0
aI0
aI0
aI0
aI0
aa(lp632
I1
aI0
aI0
aI0
aI0
aI0
aI0
aI0
aa(lp633
I1
aI0
aI0
aI0
aI0
aI0
aI0
aI0
aa(lp634
I0
aI0
aI0
aI0
aI0
aI0
aI0
aI0
aaa(lp635
(lp636
I0
aI0
aI1
aI1
aI1
aI0
aI0
aI0
aa(lp637
I0
aI1
aI0
aI0
aI0
aI1
aI0
aI0
aa(lp638
I0
aI1
aI0
aI0
aI0
aI1
aI0
aI0
aa(lp639
I0
aI1
aI0
aI0
aI0
aI1
aI0
aI0
aa(lp640
I0
aI1
aI0
aI1
aI0
aI1
aI0
aI0
aa(lp641
I0
aI1
aI0
aI1
aI0
aI1
aI0
aI0
aa(lp642
I0
aI1
aI0
aI1
aI0
aI1
aI0
aI0
aa(lp643
I0
aI1
aI0
aI0
aI0
aI1
aI0
aI0
aa(lp644
I0
aI1
aI0
aI0
aI0
aI1
aI0
aI0
aa(lp645
I0
aI1
aI0
aI0
aI0
aI1
aI0
aI0
aa(lp646
I0
aI0
aI1
aI1
aI1
aI0
aI0
aI0
aa(lp647
I0
aI0
aI0
aI0
aI0
aI0
aI0
aI0
aaa(lp648
(lp649
I0
aI0
aI1
aI1
aI0
aI0
aI0
aI0
aa(lp650
I0
aI1
aI0
aI1
aI0
aI0
aI0
aI0
aa(lp651
I0
aI0
aI0
aI1
aI0
aI0
aI0
aI0
aa(lp652
I0
aI0
aI0
aI1
aI0
aI0
aI0
aI0
aa(lp653
I0
aI0
aI0
aI1
aI0
aI0
aI0
aI0
aa(lp654
I0
aI0
aI0
aI1
aI0
aI0
aI0
aI0
aa(lp655
I0
aI0
aI0
aI1
aI0
aI0
aI0
aI0
aa(lp656
I0
aI0
aI0
aI1
aI0
aI0
aI0
aI0
aa(lp657
I0
aI0
aI0
aI1
aI0
aI0
aI0
aI0
aa(lp658
I0
aI0
aI0
aI1
aI0
aI0
aI0
aI0
aa(lp659
I0
aI1
aI1
aI1
aI1
aI1
aI0
aI0
aa(lp660
I0
aI0
aI0
aI0
aI0
aI0
aI0
aI0
aaa(lp661
(lp662
I0
aI0
aI1
aI1
aI1
aI0
aI0
aI0
aa(lp663
I0
aI1
aI0
aI0
aI0
aI1
aI0
aI0
aa(lp664
I1
aI0
aI0
aI0
aI0
aI0
aI1
aI0
aa(lp665
I0
aI0
aI0
aI0
aI0
aI0
aI1
aI0
aa(lp666
I0
aI0
aI0
aI0
aI0
aI1
aI0
aI0
aa(lp667
I0
aI0
aI0
aI0
aI1
aI0
aI0
aI0
aa(lp668
I0
aI0
aI0
aI1
aI0
aI0
aI0
aI0
aa(lp669
I0
aI0
aI1
aI0
aI0
aI0
aI0
aI0
aa(lp670
I0
aI1
aI0
aI0
aI0
aI0
aI0
aI0
aa(lp671
I1
aI0
aI0
aI0
aI0
aI0
aI0
aI0
aa(lp672
I1
aI1
aI1
aI1
aI1
aI1
aI1
aI0
aa(lp673
I0
aI0
aI0
aI0
aI0
aI0
aI0
aI0
aaa(lp674
(lp675
I0
aI0
aI1
aI1
aI1
aI0
aI0
aI0
aa(lp676
I0
aI1
aI0
aI0
aI0
aI1
aI0
aI0
aa(lp677
I1
aI0
aI0
aI0
aI0
aI0
aI1
aI0
aa(lp678
I0
aI0
aI0
aI0
aI0
aI0
aI1
aI0
aa(lp679
I0
aI0
aI0
aI0
aI0
aI1
aI0
aI0
aa(lp680
I0
aI0
aI1
aI1
aI1
aI0
aI0
aI0
aa(lp681
I0
aI0
aI0
aI0
aI0
aI1
aI0
aI0
aa(lp682
I0
aI0
aI0
aI0
aI0
aI0
aI1
aI0
aa(lp683
I1
aI0
aI0
aI0
aI0
aI0
aI1
aI0
aa(lp684
I0
aI1
aI0
aI0
aI0
aI1
aI0
aI0
aa(lp685
I0
aI0
aI1
aI1
aI1
aI0
aI0
aI0
aa(lp686
I0
aI0
aI0
aI0
aI0
aI0
aI0
aI0
aaa(lp687
(lp688
I0
aI0
aI0
aI0
aI0
aI1
aI1
aI0
aa(lp689
I0
aI0
aI0
aI0
aI1
aI0
aI1
aI0
aa(lp690
I0
aI0
aI0
aI1
aI0
aI0
aI1
aI0
aa(lp691
I0
aI0
aI1
aI0
aI0
aI0
aI1
aI0
aa(lp692
I0
aI1
aI0
aI0
aI0
aI0
aI1
aI0
aa(lp693
I1
aI0
aI0
aI0
aI0
aI0
aI1
aI0
aa(lp694
I1
aI1
aI1
aI1
aI1
aI1
aI1
aI0
aa(lp695
I0
aI0
aI0
aI0
aI0
aI0
aI1
aI0
aa(lp696
I0
aI0
aI0
aI0
aI0
aI0
aI1
aI0
aa(lp697
I0
aI0
aI0
aI0
aI0
aI0
aI1
aI0
aa(lp698
I0
aI0
aI0
aI0
aI0
aI0
aI1
aI0
aa(lp699
I0
aI0
aI0
aI0
aI0
aI0
aI0
aI0
aaa(lp700
(lp701
I1
aI1
aI1
aI1
aI1
aI1
aI1
aI0
aa(lp702
I1
aI0
aI0
aI0
aI0
aI0
aI0
aI0
aa(lp703
I1
aI0
aI0
aI0
aI0
aI0
aI0
aI0
aa(lp704
I1
aI0
aI0
aI0
aI0
aI0
aI0
aI0
aa(lp705
I1
aI1
aI1
aI1
aI1
aI0
aI0
aI0
aa(lp706
I0
aI0
aI0
aI0
aI0
aI1
aI0
aI0
aa(lp707
I0
aI0
aI0
aI0
aI0
aI0
aI1
aI0
aa(lp708
I0
aI0
aI0
aI0
aI0
aI0
aI1
aI0
aa(lp709
I0
aI0
aI0
aI0
aI0
aI0
aI1
aI0
aa(lp710
I1
aI0
aI0
aI0
aI0
aI1
aI0
aI0
aa(lp711
I0
aI1
aI1
aI1
aI1
aI0
aI0
aI0
aa(lp712
I0
aI0
aI0
aI0
aI0
aI0
aI0
aI0
aaa(lp713
(lp714
I0
aI0
aI1
aI1
aI1
aI1
aI0
aI0
aa(lp715
I0
aI1
aI0
aI0
aI0
aI0
aI1
aI0
aa(lp716
I1
aI0
aI0
aI0
aI0
aI0
aI0
aI0
aa(lp717
I1
aI0
aI0
aI0
aI0
aI0
aI0
aI0
aa(lp718
I1
aI0
aI1
aI1
aI1
aI0
aI0
aI0
aa(lp719
I1
aI1
aI0
aI0
aI0
aI1
aI0
aI0
aa(lp720
I1
aI0
aI0
aI0
aI0
aI0
aI1
aI0
aa(lp721
I1
aI0
aI0
aI0
aI0
aI0
aI1
aI0
aa(lp722
I1
aI0
aI0
aI0
aI0
aI0
aI1
aI0
aa(lp723
I0
aI1
aI0
aI0
aI0
aI1
aI0
aI0
aa(lp724
I0
aI0
aI1
aI1
aI1
aI0
aI0
aI0
aa(lp725
I0
aI0
aI0
aI0
aI0
aI0
aI0
aI0
aaa(lp726
(lp727
I1
aI1
aI1
aI1
aI1
aI1
aI1
aI0
aa(lp728
I0
aI0
aI0
aI0
aI0
aI0
aI1
aI0
aa(lp729
I0
aI0
aI0
aI0
aI0
aI1
aI0
aI0
aa(lp730
I0
aI0
aI0
aI0
aI0
aI1
aI0
aI0
aa(lp731
I0
aI0
aI0
aI0
aI1
aI0
aI0
aI0
aa(lp732
I0
aI0
aI0
aI1
aI0
aI0
aI0
aI0
aa(lp733
I0
aI0
aI0
aI1
aI0
aI0
aI0
aI0
aa(lp734
I0
aI0
aI1
aI0
aI0
aI0
aI0
aI0
aa(lp735
I0
aI1
aI0
aI0
aI0
aI0
aI0
aI0
aa(lp736
I0
aI1
aI0
aI0
aI0
aI0
aI0
aI0
aa(lp737
I1
aI0
aI0
aI0
aI0
aI0
aI0
aI0
aa(lp738
I0
aI0
aI0
aI0
aI0
aI0
aI0
aI0
aaa(lp739
(lp740
I0
aI0
aI1
aI1
aI1
aI0
aI0
aI0
aa(lp741
I0
aI1
aI0
aI0
aI0
aI1
aI0
aI0
aa(lp742
I1
aI0
aI0
aI0
aI0
aI0
aI1
aI0
aa(lp743
I1
aI0
aI0
aI0
aI0
aI0
aI1
aI0
aa(lp744
I0
aI1
aI0
aI0
aI0
aI1
aI0
aI0
aa(lp745
I0
aI0
aI1
aI1
aI1
aI0
aI0
aI0
aa(lp746
I0
aI1
aI0
aI0
aI0
aI1
aI0
aI0
aa(lp747
I1
aI0
aI0
aI0
aI0
aI0
aI1
aI0
aa(lp748
I1
aI0
aI0
aI0
aI0
aI0
aI1
aI0
aa(lp749
I0
aI1
aI0
aI0
aI0
aI1
aI0
aI0
aa(lp750
I0
aI0
aI1
aI1
aI1
aI0
aI0
aI0
aa(lp751
I0
aI0
aI0
aI0
aI0
aI0
aI0
aI0
aaa(lp752
(lp753
I0
aI0
aI1
aI1
aI1
aI0
aI0
aI0
aa(lp754
I0
aI1
aI0
aI0
aI0
aI1
aI0
aI0
aa(lp755
I1
aI0
aI0
aI0
aI0
aI0
aI1
aI0
aa(lp756
I1
aI0
aI0
aI0
aI0
aI0
aI1
aI0
aa(lp757
I1
aI0
aI0
aI0
aI0
aI0
aI1
aI0
aa(lp758
I0
aI1
aI0
aI0
aI0
aI1
aI1
aI0
aa(lp759
I0
aI0
aI1
aI1
aI1
aI0
aI1
aI0
aa(lp760
I0
aI0
aI0
aI0
aI0
aI0
aI1
aI0
aa(lp761
I0
aI0
aI0
aI0
aI0
aI0
aI1
aI0
aa(lp762
I1
aI0
aI0
aI0
aI0
aI1
aI0
aI0
aa(lp763
I0
aI1
aI1
aI1
aI1
aI0
aI0
aI0
aa(lp764
I0
aI0
aI0
aI0
aI0
aI0
aI0
aI0
aaa(lp765
(lp766
I0
aI0
aI0
aI0
aI0
aI0
aI0
aI0
aa(lp767
I0
aI0
aI0
aI0
aI0
aI0
aI0
aI0
aa(lp768
I0
aI0
aI0
aI1
aI1
aI0
aI0
aI0
aa(lp769
I0
aI0
aI0
aI1
aI1
aI0
aI0
aI0
aa(lp770
I0
aI0
aI0
aI0
aI0
aI0
aI0
aI0
aa(lp771
I0
aI0
aI0
aI0
aI0
aI0
aI0
aI0
aa(lp772
I0
aI0
aI0
aI0
aI0
aI0
aI0
aI0
aa(lp773
I0
aI0
aI0
aI1
aI1
aI0
aI0
aI0
aa(lp774
I0
aI0
aI0
aI1
aI1
aI0
aI0
aI0
aa(lp775
I0
aI0
aI0
aI0
aI0
aI0
aI0
aI0
aa(lp776
I0
aI0
aI0
aI0
aI0
aI0
aI0
aI0
aa(lp777
I0
aI0
aI0
aI0
aI0
aI0
aI0
aI0
aaa(lp778
(lp779
I0
aI0
aI0
aI0
aI0
aI0
aI0
aI0
aa(lp780
I0
aI0
aI0
aI0
aI0
aI0
aI0
aI0
aa(lp781
I0
aI0
aI0
aI1
aI1
aI0
aI0
aI0
aa(lp782
I0
aI0
aI0
aI1
aI1
aI0
aI0
aI0
aa(lp783
I0
aI0
aI0
aI0
aI0
aI0
aI0
aI0
aa(lp784
I0
aI0
aI0
aI0
aI0
aI0
aI0
aI0
aa(lp785
I0
aI0
aI0
aI0
aI0
aI0
aI0
aI0
aa(lp786
I0
aI0
aI0
aI1
aI1
aI0
aI0
aI0
aa(lp787
I0
aI0
aI0
aI1
aI1
aI0
aI0
aI0
aa(lp788
I0
aI0
aI0
aI0
aI1
aI0
aI0
aI0
aa(lp789
I0
aI0
aI1
aI1
aI0
aI0
aI0
aI0
aa(lp790
I0
aI0
aI0
aI0
aI0
aI0
aI0
aI0
aaa(lp791
(lp792
I0
aI0
aI0
aI0
aI0
aI1
aI0
aI0
aa(lp793
I0
aI0
aI0
aI0
aI1
aI0
aI0
aI0
aa(lp794
I0
aI0
aI0
aI1
aI0
aI0
aI0
aI0
aa(lp795
I0
aI0
aI1
aI0
aI0
aI0
aI0
aI0
aa(lp796
I0
aI1
aI0
aI0
aI0
aI0
aI0
aI0
aa(lp797
I1
aI0
aI0
aI0
aI0
aI0
aI0
aI0
aa(lp798
I0
aI1
aI0
aI0
aI0
aI0
aI0
aI0
aa(lp799
I0
aI0
aI1
aI0
aI0
aI0
aI0
aI0
aa(lp800
I0
aI0
aI0
aI1
aI0
aI0
aI0
aI0
aa(lp801
I0
aI0
aI0
aI0
aI1
aI0
aI0
aI0
aa(lp802
I0
aI0
aI0
aI0
aI0
aI1
aI0
aI0
aa(lp803
I0
aI0
aI0
aI0
aI0
aI0
aI0
aI0
aaa(lp804
(lp805
I0
aI0
aI0
aI0
aI0
aI0
aI0
aI0
aa(lp806
I0
aI0
aI0
aI0
aI0
aI0
aI0
aI0
aa(lp807
I0
aI0
aI0
aI0
aI0
aI0
aI0
aI0
aa(lp808
I0
aI1
aI1
aI1
aI1
aI1
aI0
aI0
aa(lp809
I0
aI0
aI0
aI0
aI0
aI0
aI0
aI0
aa(lp810
I0
aI0
aI0
aI0
aI0
aI0
aI0
aI0
aa(lp811
I0
aI0
aI0
aI0
aI0
aI0
aI0
aI0
aa(lp812
I0
aI1
aI1
aI1
aI1
aI1
aI0
aI0
aa(lp813
I0
aI0
aI0
aI0
aI0
aI0
aI0
aI0
aa(lp814
I0
aI0
aI0
aI0
aI0
aI0
aI0
aI0
aa(lp815
I0
aI0
aI0
aI0
aI0
aI0
aI0
aI0
aa(lp816
I0
aI0
aI0
aI0
aI0
aI0
aI0
aI0
aaa(lp817
(lp818
I1
aI0
aI0
aI0
aI0
aI0
aI0
aI0
aa(lp819
I0
aI1
aI0
aI0
aI0
aI0
aI0
aI0
aa(lp820
I0
aI0
aI1
aI0
aI0
aI0
aI0
aI0
aa(lp821
I0
aI0
aI0
aI1
aI0
aI0
aI0
aI0
aa(lp822
I0
aI0
aI0
aI0
aI1
aI0
aI0
aI0
aa(lp823
I0
aI0
aI0
aI0
aI0
aI1
aI0
aI0
aa(lp824
I0
aI0
aI0
aI0
aI1
aI0
aI0
aI0
aa(lp825
I0
aI0
aI0
aI1
aI0
aI0
aI0
aI0
aa(lp826
I0
aI0
aI1
aI0
aI0
aI0
aI0
aI0
aa(lp827
I0
aI1
aI0
aI0
aI0
aI0
aI0
aI0
aa(lp828
I1
aI0
aI0
aI0
aI0
aI0
aI0
aI0
aa(lp829
I0
aI0
aI0
aI0
aI0
aI0
aI0
aI0
aaa(lp830
(lp831
I0
aI0
aI1
aI1
aI1
aI0
aI0
aI0
aa(lp832
I0
aI1
aI0
aI0
aI0
aI1
aI0
aI0
aa(lp833
I1
aI0
aI0
aI0
aI0
aI0
aI1
aI0
aa(lp834
I0
aI0
aI0
aI0
aI0
aI0
aI1
aI0
aa(lp835
I0
aI0
aI0
aI0
aI0
aI0
aI1
aI0
aa(lp836
I0
aI0
aI0
aI0
aI0
aI1
aI0
aI0
aa(lp837
I0
aI0
aI0
aI0
aI1
aI0
aI0
aI0
aa(lp838
I0
aI0
aI0
aI1
aI0
aI0
aI0
aI0
aa(lp839
I0
aI0
aI0
aI1
aI0
aI0
aI0
aI0
aa(lp840
I0
aI0
aI0
aI0
aI0
aI0
aI0
aI0
aa(lp841
I0
aI0
aI0
aI1
aI0
aI0
aI0
aI0
aa(lp842
I0
aI0
aI0
aI0
aI0
aI0
aI0
aI0
aaa(lp843
(lp844
I0
aI0
aI1
aI1
aI1
aI0
aI0
aI0
aa(lp845
I0
aI1
aI0
aI0
aI0
aI1
aI0
aI0
aa(lp846
I1
aI0
aI0
aI0
aI0
aI0
aI1
aI0
aa(lp847
I1
aI0
aI0
aI1
aI0
aI0
aI1
aI0
aa(lp848
I1
aI0
aI1
aI0
aI1
aI0
aI1
aI0
aa(lp849
I1
aI0
aI1
aI0
aI1
aI0
aI1
aI0
aa(lp850
I1
aI0
aI1
aI0
aI1
aI0
aI1
aI0
aa(lp851
I1
aI0
aI0
aI1
aI1
aI1
aI0
aI0
aa(lp852
I1
aI0
aI0
aI0
aI0
aI0
aI0
aI0
aa(lp853
I0
aI1
aI0
aI0
aI0
aI0
aI1
aI0
aa(lp854
I0
aI0
aI1
aI1
aI1
aI1
aI0
aI0
aa(lp855
I0
aI0
aI0
aI0
aI0
aI0
aI0
aI0
aaa(lp856
(lp857
I0
aI0
aI0
aI1
aI0
aI0
aI0
aI0
aa(lp858
I0
aI0
aI1
aI0
aI1
aI0
aI0
aI0
aa(lp859
I0
aI1
aI0
aI0
aI0
aI1
aI0
aI0
aa(lp860
I0
aI1
aI0
aI0
aI0
aI1
aI0
aI0
aa(lp861
I1
aI0
aI0
aI0
aI0
aI0
aI1
aI0
aa(lp862
I1
aI0
aI0
aI0
aI0
aI0
aI1
aI0
aa(lp863
I1
aI1
aI1
aI1
aI1
aI1
aI1
aI0
aa(lp864
I1
aI0
aI0
aI0
aI0
aI0
aI1
aI0
aa(lp865
I1
aI0
aI0
aI0
aI0
aI0
aI1
aI0
aa(lp866
I1
aI0
aI0
aI0
aI0
aI0
aI1
aI0
aa(lp867
I1
aI0
aI0
aI0
aI0
aI0
aI1
aI0
aa(lp868
I0
aI0
aI0
aI0
aI0
aI0
aI0
aI0
aaa(lp869
(lp870
I1
aI1
aI1
aI1
aI1
aI0
aI0
aI0
aa(lp871
I1
aI0
aI0
aI0
aI0
aI1
aI0
aI0
aa(lp872
I1
aI0
aI0
aI0
aI0
aI0
aI1
aI0
aa(lp873
I1
aI0
aI0
aI0
aI0
aI0
aI1
aI0
aa(lp874
I1
aI0
aI0
aI0
aI0
aI1
aI0
aI0
aa(lp875
I1
aI1
aI1
aI1
aI1
aI0
aI0
aI0
aa(lp876
I1
aI0
aI0
aI0
aI0
aI1
aI0
aI0
aa(lp877
I1
aI0
aI0
aI0
aI0
aI0
aI1
aI0
aa(lp878
I1
aI0
aI0
aI0
aI0
aI0
aI1
aI0
aa(lp879
I1
aI0
aI0
aI0
aI0
aI1
aI0
aI0
aa(lp880
I1
aI1
aI1
aI1
aI1
aI0
aI0
aI0
aa(lp881
I0
aI0
aI0
aI0
aI0
aI0
aI0
aI0
aaa(lp882
(lp883
I0
aI0
aI1
aI1
aI1
aI0
aI0
aI0
aa(lp884
I0
aI1
aI0
aI0
aI0
aI1
aI0
aI0
aa(lp885
I1
aI0
aI0
aI0
aI0
aI0
aI1
aI0
aa(lp886
I1
aI0
aI0
aI0
aI0
aI0
aI0
aI0
aa(lp887
I1
aI0
aI0
aI0
aI0
aI0
aI0
aI0
aa(lp888
I1
aI0
aI0
aI0
aI0
aI0
aI0
aI0
aa(lp889
I1
aI0
aI0
aI0
aI0
aI0
aI0
aI0
aa(lp890
I1
aI0
aI0
aI0
aI0
aI0
aI0
aI0
aa(lp891
I1
aI0
aI0
aI0
aI0
aI0
aI1
aI0
aa(lp892
I0
aI1
aI0
aI0
aI0
aI1
aI0
aI0
aa(lp893
I0
aI0
aI1
aI1
aI1
aI0
aI0
aI0
aa(lp894
I0
aI0
aI0
aI0
aI0
aI0
aI0
aI0
aaa(lp895
(lp896
I1
aI1
aI1
aI1
aI1
aI0
aI0
aI0
aa(lp897
I1
aI0
aI0
aI0
aI0
aI1
aI0
aI0
aa(lp898
I1
aI0
aI0
aI0
aI0
aI0
aI1
aI0
aa(lp899
I1
aI0
aI0
aI0
aI0
aI0
aI1
aI0
aa(lp900
I1
aI0
aI0
aI0
aI0
aI0
aI1
aI0
aa(lp901
I1
aI0
aI0
aI0
aI0
aI0
aI1
aI0
aa(lp902
I1
aI0
aI0
aI0
aI0
aI0
aI1
aI0
aa(lp903
I1
aI0
aI0
aI0
aI0
aI0
aI1
aI0
aa(lp904
I1
aI0
aI0
aI0
aI0
aI0
aI1
aI0
aa(lp905
I1
aI0
aI0
aI0
aI0
aI1
aI0
aI0
aa(lp906
I1
aI1
aI1
aI1
aI1
aI0
aI0
aI0
aa(lp907
I0
aI0
aI0
aI0
aI0
aI0
aI0
aI0
aaa(lp908
(lp909
I1
aI1
aI1
aI1
aI1
aI1
aI1
aI0
aa(lp910
I1
aI0
aI0
aI0
aI0
aI0
aI0
aI0
aa(lp911
I1
aI0
aI0
aI0
aI0
aI0
aI0
aI0
aa(lp912
I1
aI0
aI0
aI0
aI0
aI0
aI0
aI0
aa(lp913
I1
aI0
aI0
aI0
aI0
aI0
aI0
aI0
aa(lp914
I1
aI1
aI1
aI1
aI1
aI1
aI0
aI0
aa(lp915
I1
aI0
aI0
aI0
aI0
aI0
aI0
aI0
aa(lp916
I1
aI0
aI0
aI0
aI0
aI0
aI0
aI0
aa(lp917
I1
aI0
aI0
aI0
aI0
aI0
aI0
aI0
aa(lp918
I1
aI0
aI0
aI0
aI0
aI0
aI0
aI0
aa(lp919
I1
aI1
aI1
aI1
aI1
aI1
aI1
aI0
aa(lp920
I0
aI0
aI0
aI0
aI0
aI0
aI0
aI0
aaa(lp921
(lp922
I1
aI1
aI1
aI1
aI1
aI1
aI1
aI0
aa(lp923
I1
aI0
aI0
aI0
aI0
aI0
aI0
aI0
aa(lp924
I1
aI0
aI0
aI0
aI0
aI0
aI0
aI0
aa(lp925
I1
aI0
aI0
aI0
aI0
aI0
aI0
aI0
aa(lp926
I1
aI0
aI0
aI0
aI0
aI0
aI0
aI0
aa(lp927
I1
aI1
aI1
aI1
aI1
aI1
aI0
aI0
aa(lp928
I1
aI0
aI0
aI0
aI0
aI0
aI0
aI0
aa(lp929
I1
aI0
aI0
aI0
aI0
aI0
aI0
aI0
aa(lp930
I1
aI0
aI0
aI0
aI0
aI0
aI0
aI0
aa(lp931
I1
aI0
aI0
aI0
aI0
aI0
aI0
aI0
aa(lp932
I1
aI0
aI0
aI0
aI0
aI0
aI0
aI0
aa(lp933
I0
aI0
aI0
aI0
aI0
aI0
aI0
aI0
aaa(lp934
(lp935
I0
aI0
aI1
aI1
aI1
aI0
aI0
aI0
aa(lp936
I0
aI1
aI0
aI0
aI0
aI1
aI0
aI0
aa(lp937
I1
aI0
aI0
aI0
aI0
aI0
aI1
aI0
aa(lp938
I1
aI0
aI0
aI0
aI0
aI0
aI0
aI0
aa(lp939
I1
aI0
aI0
aI0
aI0
aI0
aI0
aI0
aa(lp940
I1
aI0
aI0
aI1
aI1
aI1
aI1
aI0
aa(lp941
I1
aI0
aI0
aI0
aI0
aI0
aI1
aI0
aa(lp942
I1
aI0
aI0
aI0
aI0
aI0
aI1
aI0
aa(lp943
I1
aI0
aI0
aI0
aI0
aI0
aI1
aI0
aa(lp944
I0
aI1
aI0
aI0
aI0
aI1
aI0
aI0
aa(lp945
I0
aI0
aI1
aI1
aI1
aI0
aI0
aI0
aa(lp946
I0
aI0
aI0
aI0
aI0
aI0
aI0
aI0
aaa(lp947
(lp948
I1
aI0
aI0
aI0
aI0
aI0
aI1
aI0
aa(lp949
I1
aI0
aI0
aI0
aI0
aI0
aI1
aI0
aa(lp950
I1
aI0
aI0
aI0
aI0
aI0
aI1
aI0
aa(lp951
I1
aI0
aI0
aI0
aI0
aI0
aI1
aI0
aa(lp952
I1
aI0
aI0
aI0
aI0
aI0
aI1
aI0
aa(lp953
I1
aI1
aI1
aI1
aI1
aI1
aI1
aI0
aa(lp954
I1
aI0
aI0
aI0
aI0
aI0
aI1
aI0
aa(lp955
I1
aI0
aI0
aI0
aI0
aI0
aI1
aI0
aa(lp956
I1
aI0
aI0
aI0
aI0
aI0
aI1
aI0
aa(lp957
I1
aI0
aI0
aI0
aI0
aI0
aI1
aI0
aa(lp958
I1
aI0
aI0
aI0
aI0
aI0
aI1
aI0
aa(lp959
I0
aI0
aI0
aI0
aI0
aI0
aI0
aI0
aaa(lp960
(lp961
I1
aI1
aI1
aI1
aI1
aI1
aI1
aI0
aa(lp962
I0
aI0
aI0
aI1
aI0
aI0
aI0
aI0
aa(lp963
I0
aI0
aI0
aI1
aI0
aI0
aI0
aI0
aa(lp964
I0
aI0
aI0
aI1
aI0
aI0
aI0
aI0
aa(lp965
I0
aI0
aI0
aI1
aI0
aI0
aI0
aI0
aa(lp966
I0
aI0
aI0
aI1
aI0
aI0
aI0
aI0
aa(lp967
I0
aI0
aI0
aI1
aI0
aI0
aI0
aI0
aa(lp968
I0
aI0
aI0
aI1
aI0
aI0
aI0
aI0
aa(lp969
I0
aI0
aI0
aI1
aI0
aI0
aI0
aI0
aa(lp970
I0
aI0
aI0
aI1
aI0
aI0
aI0
aI0
aa(lp971
I1
aI1
aI1
aI1
aI1
aI1
aI1
aI0
aa(lp972
I0
aI0
aI0
aI0
aI0
aI0
aI0
aI0
aaa(lp973
(lp974
I0
aI0
aI1
aI1
aI1
aI1
aI1
aI0
aa(lp975
I0
aI0
aI0
aI0
aI1
aI0
aI0
aI0
aa(lp976
I0
aI0
aI0
aI0
aI1
aI0
aI0
aI0
aa(lp977
I0
aI0
aI0
aI0
aI1
aI0
aI0
aI0
aa(lp978
I0
aI0
aI0
aI0
aI1
aI0
aI0
aI0
aa(lp979
I0
aI0
aI0
aI0
aI1
aI0
aI0
aI0
aa(lp980
I0
aI0
aI0
aI0
aI1
aI0
aI0
aI0
aa(lp981
I0
aI0
aI0
aI0
aI1
aI0
aI0
aI0
aa(lp982
I0
aI0
aI0
aI0
aI1
aI0
aI0
aI0
aa(lp983
I1
aI0
aI0
aI0
aI1
aI0
aI0
aI0
aa(lp984
I0
aI1
aI1
aI1
aI0
aI0
aI0
aI0
aa(lp985
I0
aI0
aI0
aI0
aI0
aI0
aI0
aI0
aaa(lp986
(lp987
I1
aI0
aI0
aI0
aI0
aI0
aI1
aI0
aa(lp988
I1
aI0
aI0
aI0
aI0
aI1
aI0
aI0
aa(lp989
I1
aI0
aI0
aI0
aI1
aI0
aI0
aI0
aa(lp990
I1
aI0
aI0
aI1
aI0
aI0
aI0
aI0
aa(lp991
I1
aI0
aI1
aI0
aI0
aI0
aI0
aI0
aa(lp992
I1
aI1
aI0
aI0
aI0
aI0
aI0
aI0
aa(lp993
I1
aI0
aI1
aI0
aI0
aI0
aI0
aI0
aa(lp994
I1
aI0
aI0
aI1
aI0
aI0
aI0
aI0
aa(lp995
I1
aI0
aI0
aI0
aI1
aI0
aI0
aI0
aa(lp996
I1
aI0
aI0
aI0
aI0
aI1
aI0
aI0
aa(lp997
I1
aI0
aI0
aI0
aI0
aI0
aI1
aI0
aa(lp998
I0
aI0
aI0
aI0
aI0
aI0
aI0
aI0
aaa(lp999
(lp1000
I1
aI0
aI0
aI0
aI0
aI0
aI0
aI0
aa(lp1001
I1
aI0
aI0
aI0
aI0
aI0
aI0
aI0
aa(lp1002
I1
aI0
aI0
aI0
aI0
aI0
aI0
aI0
aa(lp1003
I1
aI0
aI0
aI0
aI0
aI0
aI0
aI0
aa(lp1004
I1
aI0
aI0
aI0
aI0
aI0
aI0
aI0
aa(lp1005
I1
aI0
aI0
aI0
aI0
aI0
aI0
aI0
aa(lp1006
I1
aI0
aI0
aI0
aI0
aI0
aI0
aI0
aa(lp1007
I1
aI0
aI0
aI0
aI0
aI0
aI0
aI0
aa(lp1008
I1
aI0
aI0
aI0
aI0
aI0
aI0
aI0
aa(lp1009
I1
aI0
aI0
aI0
aI0
aI0
aI0
aI0
aa(lp1010
I1
aI1
aI1
aI1
aI1
aI1
aI1
aI0
aa(lp1011
I0
aI0
aI0
aI0
aI0
aI0
aI0
aI0
aaa(lp1012
(lp1013
I1
aI0
aI0
aI0
aI0
aI0
aI1
aI0
aa(lp1014
I1
aI0
aI0
aI0
aI0
aI0
aI1
aI0
aa(lp1015
I1
aI1
aI0
aI0
aI0
aI1
aI1
aI0
aa(lp1016
I1
aI0
aI1
aI0
aI1
aI0
aI1
aI0
aa(lp1017
I1
aI0
aI1
aI0
aI1
aI0
aI1
aI0
aa(lp1018
I1
aI0
aI0
aI1
aI0
aI0
aI1
aI0
aa(lp1019
I1
aI0
aI0
aI1
aI0
aI0
aI1
aI0
aa(lp1020
I1
aI0
aI0
aI0
aI0
aI0
aI1
aI0
aa(lp1021
I1
aI0
aI0
aI0
aI0
aI0
aI1
aI0
aa(lp1022
I1
aI0
aI0
aI0
aI0
aI0
aI1
aI0
aa(lp1023
I1
aI0
aI0
aI0
aI0
aI0
aI1
aI0
aa(lp1024
I0
aI0
aI0
aI0
aI0
aI0
aI0
aI0
aaa(lp1025
(lp1026
I1
aI0
aI0
aI0
aI0
aI0
aI1
aI0
aa(lp1027
I1
aI0
aI0
aI0
aI0
aI0
aI1
aI0
aa(lp1028
I1
aI1
aI0
aI0
aI0
aI0
aI1
aI0
aa(lp1029
I1
aI0
aI1
aI0
aI0
aI0
aI1
aI0
aa(lp1030
I1
aI0
aI1
aI0
aI0
aI0
aI1
aI0
aa(lp1031
I1
aI0
aI0
aI1
aI0
aI0
aI1
aI0
aa(lp1032
I1
aI0
aI0
aI0
aI1
aI0
aI1
aI0
aa(lp1033
I1
aI0
aI0
aI0
aI1
aI0
aI1
aI0
aa(lp1034
I1
aI0
aI0
aI0
aI0
aI1
aI1
aI0
aa(lp1035
I1
aI0
aI0
aI0
aI0
aI0
aI1
aI0
aa(lp1036
I1
aI0
aI0
aI0
aI0
aI0
aI1
aI0
aa(lp1037
I0
aI0
aI0
aI0
aI0
aI0
aI0
aI0
aaa(lp1038
(lp1039
I0
aI0
aI1
aI1
aI1
aI0
aI0
aI0
aa(lp1040
I0
aI1
aI0
aI0
aI0
aI1
aI0
aI0
aa(lp1041
I1
aI0
aI0
aI0
aI0
aI0
aI1
aI0
aa(lp1042
I1
aI0
aI0
aI0
aI0
aI0
aI1
aI0
aa(lp1043
I1
aI0
aI0
aI0
aI0
aI0
aI1
aI0
aa(lp1044
I1
aI0
aI0
aI0
aI0
aI0
aI1
aI0
aa(lp1045
I1
aI0
aI0
aI0
aI0
aI0
aI1
aI0
aa(lp1046
I1
aI0
aI0
aI0
aI0
aI0
aI1
aI0
aa(lp1047
I1
aI0
aI0
aI0
aI0
aI0
aI1
aI0
aa(lp1048
I0
aI1
aI0
aI0
aI0
aI1
aI0
aI0
aa(lp1049
I0
aI0
aI1
aI1
aI1
aI0
aI0
aI0
aa(lp1050
I0
aI0
aI0
aI0
aI0
aI0
aI0
aI0
aaa(lp1051
(lp1052
I1
aI1
aI1
aI1
aI1
aI0
aI0
aI0
aa(lp1053
I1
aI0
aI0
aI0
aI0
aI1
aI0
aI0
aa(lp1054
I1
aI0
aI0
aI0
aI0
aI0
aI1
aI0
aa(lp1055
I1
aI0
aI0
aI0
aI0
aI0
aI1
aI0
aa(lp1056
I1
aI0
aI0
aI0
aI0
aI1
aI0
aI0
aa(lp1057
I1
aI1
aI1
aI1
aI1
aI0
aI0
aI0
aa(lp1058
I1
aI0
aI0
aI0
aI0
aI0
aI0
aI0
aa(lp1059
I1
aI0
aI0
aI0
aI0
aI0
aI0
aI0
aa(lp1060
I1
aI0
aI0
aI0
aI0
aI0
aI0
aI0
aa(lp1061
I1
aI0
aI0
aI0
aI0
aI0
aI0
aI0
aa(lp1062
I1
aI0
aI0
aI0
aI0
aI0
aI0
aI0
aa(lp1063
I0
aI0
aI0
aI0
aI0
aI0
aI0
aI0
aaa(lp1064
(lp1065
I0
aI0
aI1
aI1
aI1
aI0
aI0
aI0
aa(lp1066
I0
aI1
aI0
aI0
aI0
aI1
aI0
aI0
aa(lp1067
I1
aI0
aI0
aI0
aI0
aI0
aI1
aI0
aa(lp1068
I1
aI0
aI0
aI0
aI0
aI0
aI1
aI0
aa(lp1069
I1
aI0
aI0
aI0
aI0
aI0
aI1
aI0
aa(lp1070
I1
aI0
aI0
aI0
aI0
aI0
aI1
aI0
aa(lp1071
I1
aI0
aI0
aI0
aI0
aI0
aI1
aI0
aa(lp1072
I1
aI0
aI0
aI0
aI0
aI0
aI1
aI0
aa(lp1073
I0
aI1
aI0
aI0
aI0
aI1
aI0
aI0
aa(lp1074
I0
aI0
aI1
aI1
aI1
aI0
aI0
aI0
aa(lp1075
I0
aI0
aI0
aI1
aI1
aI0
aI0
aI0
aa(lp1076
I0
aI0
aI0
aI0
aI1
aI1
aI1
aI0
aaa(lp1077
(lp1078
I1
aI1
aI1
aI1
aI1
aI0
aI0
aI0
aa(lp1079
I1
aI0
aI0
aI0
aI0
aI1
aI0
aI0
aa(lp1080
I1
aI0
aI0
aI0
aI0
aI0
aI1
aI0
aa(lp1081
I1
aI0
aI0
aI0
aI0
aI0
aI1
aI0
aa(lp1082
I1
aI0
aI0
aI0
aI0
aI1
aI0
aI0
aa(lp1083
I1
aI1
aI1
aI1
aI1
aI0
aI0
aI0
aa(lp1084
I1
aI0
aI1
aI0
aI0
aI0
aI0
aI0
aa(lp1085
I1
aI0
aI0
aI1
aI0
aI0
aI0
aI0
aa(lp1086
I1
aI0
aI0
aI0
aI1
aI0
aI0
aI0
aa(lp1087
I1
aI0
aI0
aI0
aI0
aI1
aI0
aI0
aa(lp1088
I1
aI0
aI0
aI0
aI0
aI0
aI1
aI0
aa(lp1089
I0
aI0
aI0
aI0
aI0
aI0
aI0
aI0
aaa(lp1090
(lp1091
I0
aI0
aI1
aI1
aI1
aI0
aI0
aI0
aa(lp1092
I0
aI1
aI0
aI0
aI0
aI1
aI0
aI0
aa(lp1093
I1
aI0
aI0
aI0
aI0
aI0
aI1
aI0
aa(lp1094
I1
aI0
aI0
aI0
aI0
aI0
aI0
aI0
aa(lp1095
I0
aI1
aI0
aI0
aI0
aI0
aI0
aI0
aa(lp1096
I0
aI0
aI1
aI1
aI1
aI0
aI0
aI0
aa(lp1097
I0
aI0
aI0
aI0
aI0
aI1
aI0
aI0
aa(lp1098
I0
aI0
aI0
aI0
aI0
aI0
aI1
aI0
aa(lp1099
I1
aI0
aI0
aI0
aI0
aI0
aI1
aI0
aa(lp1100
I0
aI1
aI0
aI0
aI0
aI1
aI0
aI0
aa(lp1101
I0
aI0
aI1
aI1
aI1
aI0
aI0
aI0
aa(lp1102
I0
aI0
aI0
aI0
aI0
aI0
aI0
aI0
aaa(lp1103
(lp1104
I1
aI1
aI1
aI1
aI1
aI1
aI1
aI0
aa(lp1105
I0
aI0
aI0
aI1
aI0
aI0
aI0
aI0
aa(lp1106
I0
aI0
aI0
aI1
aI0
aI0
aI0
aI0
aa(lp1107
I0
aI0
aI0
aI1
aI0
aI0
aI0
aI0
aa(lp1108
I0
aI0
aI0
aI1
aI0
aI0
aI0
aI0
aa(lp1109
I0
aI0
aI0
aI1
aI0
aI0
aI0
aI0
aa(lp1110
I0
aI0
aI0
aI1
aI0
aI0
aI0
aI0
aa(lp1111
I0
aI0
aI0
aI1
aI0
aI0
aI0
aI0
aa(lp1112
I0
aI0
aI0
aI1
aI0
aI0
aI0
aI0
aa(lp1113
I0
aI0
aI0
aI1
aI0
aI0
aI0
aI0
aa(lp1114
I0
aI0
aI0
aI1
aI0
aI0
aI0
aI0
aa(lp1115
I0
aI0
aI0
aI0
aI0
aI0
aI0
aI0
aaa(lp1116
(lp1117
I1
aI0
aI0
aI0
aI0
aI0
aI1
aI0
aa(lp1118
I1
aI0
aI0
aI0
aI0
aI0
aI1
aI0
aa(lp1119
I1
aI0
aI0
aI0
aI0
aI0
aI1
aI0
aa(lp1120
I1
aI0
aI0
aI0
aI0
aI0
aI1
aI0
aa(lp1121
I1
aI0
aI0
aI0
aI0
aI0
aI1
aI0
aa(lp1122
I1
aI0
aI0
aI0
aI0
aI0
aI1
aI0
aa(lp1123
I1
aI0
aI0
aI0
aI0
aI0
aI1
aI0
aa(lp1124
I1
aI0
aI0
aI0
aI0
aI0
aI1
aI0
aa(lp1125
I1
aI0
aI0
aI0
aI0
aI0
aI1
aI0
aa(lp1126
I0
aI1
aI0
aI0
aI0
aI1
aI0
aI0
aa(lp1127
I0
aI0
aI1
aI1
aI1
aI0
aI0
aI0
aa(lp1128
I0
aI0
aI0
aI0
aI0
aI0
aI0
aI0
aaa(lp1129
(lp1130
I1
aI0
aI0
aI0
aI0
aI0
aI1
aI0
aa(lp1131
I1
aI0
aI0
aI0
aI0
aI0
aI1
aI0
aa(lp1132
I1
aI0
aI0
aI0
aI0
aI0
aI1
aI0
aa(lp1133
I1
aI0
aI0
aI0
aI0
aI0
aI1
aI0
aa(lp1134
I1
aI0
aI0
aI0
aI0
aI0
aI1
aI0
aa(lp1135
I0
aI1
aI0
aI0
aI0
aI1
aI0
aI0
aa(lp1136
I0
aI1
aI0
aI0
aI0
aI1
aI0
aI0
aa(lp1137
I0
aI0
aI1
aI0
aI1
aI0
aI0
aI0
aa(lp1138
I0
aI0
aI1
aI0
aI1
aI0
aI0
aI0
aa(lp1139
I0
aI0
aI0
aI1
aI0
aI0
aI0
aI0
aa(lp1140
I0
aI0
aI0
aI1
aI0
aI0
aI0
aI0
aa(lp1141
I0
aI0
aI0
aI0
aI0
aI0
aI0
aI0
aaa(lp1142
(lp1143
I1
aI0
aI0
aI0
aI0
aI0
aI1
aI0
aa(lp1144
I1
aI0
aI0
aI0
aI0
aI0
aI1
aI0
aa(lp1145
I1
aI0
aI0
aI0
aI0
aI0
aI1
aI0
aa(lp1146
I1
aI0
aI0
aI0
aI0
aI0
aI1
aI0
aa(lp1147
I1
aI0
aI0
aI1
aI0
aI0
aI1
aI0
aa(lp1148
I1
aI0
aI0
aI1
aI0
aI0
aI1
aI0
aa(lp1149
I1
aI0
aI0
aI1
aI0
aI0
aI1
aI0
aa(lp1150
I1
aI0
aI1
aI0
aI1
aI0
aI1
aI0
aa(lp1151
I1
aI1
aI0
aI0
aI0
aI1
aI1
aI0
aa(lp1152
I1
aI0
aI0
aI0
aI0
aI0
aI1
aI0
aa(lp1153
I1
aI0
aI0
aI0
aI0
aI0
aI1
aI0
aa(lp1154
I0
aI0
aI0
aI0
aI0
aI0
aI0
aI0
aaa(lp1155
(lp1156
I1
aI0
aI0
aI0
aI0
aI0
aI1
aI0
aa(lp1157
I1
aI0
aI0
aI0
aI0
aI0
aI1
aI0
aa(lp1158
I1
aI0
aI0
aI0
aI0
aI0
aI1
aI0
aa(lp1159
I0
aI1
aI0
aI0
aI0
aI1
aI0
aI0
aa(lp1160
I0
aI0
aI1
aI0
aI1
aI0
aI0
aI0
aa(lp1161
I0
aI0
aI0
aI1
aI0
aI0
aI0
aI0
aa(lp1162
I0
aI0
aI1
aI0
aI1
aI0
aI0
aI0
aa(lp1163
I0
aI1
aI0
aI0
aI0
aI1
aI0
aI0
aa(lp1164
I1
aI0
aI0
aI0
aI0
aI0
aI1
aI0
aa(lp1165
I1
aI0
aI0
aI0
aI0
aI0
aI1
aI0
aa(lp1166
I1
aI0
aI0
aI0
aI0
aI0
aI1
aI0
aa(lp1167
I0
aI0
aI0
aI0
aI0
aI0
aI0
aI0
aaa(lp1168
(lp1169
I1
aI0
aI0
aI0
aI0
aI0
aI1
aI0
aa(lp1170
I1
aI0
aI0
aI0
aI0
aI0
aI1
aI0
aa(lp1171
I0
aI1
aI0
aI0
aI0
aI1
aI0
aI0
aa(lp1172
I0
aI1
aI0
aI0
aI0
aI1
aI0
aI0
aa(lp1173
I0
aI0
aI1
aI0
aI1
aI0
aI0
aI0
aa(lp1174
I0
aI0
aI1
aI0
aI1
aI0
aI0
aI0
aa(lp1175
I0
aI0
aI0
aI1
aI0
aI0
aI0
aI0
aa(lp1176
I0
aI0
aI0
aI1
aI0
aI0
aI0
aI0
aa(lp1177
I0
aI0
aI0
aI1
aI0
aI0
aI0
aI0
aa(lp1178
I0
aI0
aI0
aI1
aI0
aI0
aI0
aI0
aa(lp1179
I0
aI0
aI0
aI1
aI0
aI0
aI0
aI0
aa(lp1180
I0
aI0
aI0
aI0
aI0
aI0
aI0
aI0
aaa(lp1181
(lp1182
I1
aI1
aI1
aI1
aI1
aI1
aI1
aI0
aa(lp1183
I0
aI0
aI0
aI0
aI0
aI0
aI1
aI0
aa(lp1184
I0
aI0
aI0
aI0
aI0
aI0
aI1
aI0
aa(lp1185
I0
aI0
aI0
aI0
aI0
aI1
aI0
aI0
aa(lp1186
I0
aI0
aI0
aI0
aI1
aI0
aI0
aI0
aa(lp1187
I0
aI0
aI0
aI1
aI0
aI0
aI0
aI0
aa(lp1188
I0
aI0
aI1
aI0
aI0
aI0
aI0
aI0
aa(lp1189
I0
aI1
aI0
aI0
aI0
aI0
aI0
aI0
aa(lp1190
I1
aI0
aI0
aI0
aI0
aI0
aI0
aI0
aa(lp1191
I1
aI0
aI0
aI0
aI0
aI0
aI0
aI0
aa(lp1192
I1
aI1
aI1
aI1
aI1
aI1
aI1
aI0
aa(lp1193
I0
aI0
aI0
aI0
aI0
aI0
aI0
aI0
aaa(lp1194
(lp1195
I0
aI0
aI1
aI1
aI1
aI0
aI0
aI0
aa(lp1196
I0
aI0
aI1
aI0
aI0
aI0
aI0
aI0
aa(lp1197
I0
aI0
aI1
aI0
aI0
aI0
aI0
aI0
aa(lp1198
I0
aI0
aI1
aI0
aI0
aI0
aI0
aI0
aa(lp1199
I0
aI0
aI1
aI0
aI0
aI0
aI0
aI0
aa(lp1200
I0
aI0
aI1
aI0
aI0
aI0
aI0
aI0
aa(lp1201
I0
aI0
aI1
aI0
aI0
aI0
aI0
aI0
aa(lp1202
I0
aI0
aI1
aI0
aI0
aI0
aI0
aI0
aa(lp1203
I0
aI0
aI1
aI0
aI0
aI0
aI0
aI0
aa(lp1204
I0
aI0
aI1
aI0
aI0
aI0
aI0
aI0
aa(lp1205
I0
aI0
aI1
aI1
aI1
aI0
aI0
aI0
aa(lp1206
I0
aI0
aI0
aI0
aI0
aI0
aI0
aI0
aaa(lp1207
(lp1208
I1
aI0
aI0
aI0
aI0
aI0
aI0
aI0
aa(lp1209
I1
aI0
aI0
aI0
aI0
aI0
aI0
aI0
aa(lp1210
I0
aI1
aI0
aI0
aI0
aI0
aI0
aI0
aa(lp1211
I0
aI1
aI0
aI0
aI0
aI0
aI0
aI0
aa(lp1212
I0
aI0
aI1
aI0
aI0
aI0
aI0
aI0
aa(lp1213
I0
aI0
aI0
aI1
aI0
aI0
aI0
aI0
aa(lp1214
I0
aI0
aI0
aI0
aI1
aI0
aI0
aI0
aa(lp1215
I0
aI0
aI0
aI0
aI0
aI1
aI0
aI0
aa(lp1216
I0
aI0
aI0
aI0
aI0
aI1
aI0
aI0
aa(lp1217
I0
aI0
aI0
aI0
aI0
aI0
aI1
aI0
aa(lp1218
I0
aI0
aI0
aI0
aI0
aI0
aI1
aI0
aa(lp1219
I0
aI0
aI0
aI0
aI0
aI0
aI0
aI0
aaa(lp1220
(lp1221
I0
aI0
aI1
aI1
aI1
aI0
aI0
aI0
aa(lp1222
I0
aI0
aI0
aI0
aI1
aI0
aI0
aI0
aa(lp1223
I0
aI0
aI0
aI0
aI1
aI0
aI0
aI0
aa(lp1224
I0
aI0
aI0
aI0
aI1
aI0
aI0
aI0
aa(lp1225
I0
aI0
aI0
aI0
aI1
aI0
aI0
aI0
aa(lp1226
I0
aI0
aI0
aI0
aI1
aI0
aI0
aI0
aa(lp1227
I0
aI0
aI0
aI0
aI1
aI0
aI0
aI0
aa(lp1228
I0
aI0
aI0
aI0
aI1
aI0
aI0
aI0
aa(lp1229
I0
aI0
aI0
aI0
aI1
aI0
aI0
aI0
aa(lp1230
I0
aI0
aI0
aI0
aI1
aI0
aI0
aI0
aa(lp1231
I0
aI0
aI1
aI1
aI1
aI0
aI0
aI0
aa(lp1232
I0
aI0
aI0
aI0
aI0
aI0
aI0
aI0
aaa(lp1233
(lp1234
I0
aI0
aI0
aI1
aI0
aI0
aI0
aI0
aa(lp1235
I0
aI0
aI1
aI0
aI1
aI0
aI0
aI0
aa(lp1236
I0
aI1
aI0
aI0
aI0
aI1
aI0
aI0
aa(lp1237
I1
aI0
aI0
aI0
aI0
aI0
aI1
aI0
aa(lp1238
I0
aI0
aI0
aI0
aI0
aI0
aI0
aI0
aa(lp1239
I0
aI0
aI0
aI0
aI0
aI0
aI0
aI0
aa(lp1240
I0
aI0
aI0
aI0
aI0
aI0
aI0
aI0
aa(lp1241
I0
aI0
aI0
aI0
aI0
aI0
aI0
aI0
aa(lp1242
I0
aI0
aI0
aI0
aI0
aI0
aI0
aI0
aa(lp1243
I0
aI0
aI0
aI0
aI0
aI0
aI0
aI0
aa(lp1244
I0
aI0
aI0
aI0
aI0
aI0
aI0
aI0
aa(lp1245
I0
aI0
aI0
aI0
aI0
aI0
aI0
aI0
aaa(lp1246
(lp1247
I0
aI0
aI0
aI0
aI0
aI0
aI0
aI0
aa(lp1248
I0
aI0
aI0
aI0
aI0
aI0
aI0
aI0
aa(lp1249
I0
aI0
aI0
aI0
aI0
aI0
aI0
aI0
aa(lp1250
I0
aI0
aI0
aI0
aI0
aI0
aI0
aI0
aa(lp1251
I0
aI0
aI0
aI0
aI0
aI0
aI0
aI0
aa(lp1252
I0
aI0
aI0
aI0
aI0
aI0
aI0
aI0
aa(lp1253
I0
aI0
aI0
aI0
aI0
aI0
aI0
aI0
aa(lp1254
I0
aI0
aI0
aI0
aI0
aI0
aI0
aI0
aa(lp1255
I0
aI0
aI0
aI0
aI0
aI0
aI0
aI0
aa(lp1256
I1
aI1
aI1
aI1
aI1
aI1
aI1
aI0
aa(lp1257
I1
aI1
aI1
aI1
aI1
aI1
aI1
aI0
aa(lp1258
I0
aI0
aI0
aI0
aI0
aI0
aI0
aI0
aaa(lp1259
(lp1260
I0
aI0
aI1
aI0
aI0
aI0
aI0
aI0
aa(lp1261
I0
aI0
aI0
aI1
aI0
aI0
aI0
aI0
aa(lp1262
I0
aI0
aI0
aI0
aI1
aI0
aI0
aI0
aa(lp1263
I0
aI0
aI0
aI0
aI0
aI0
aI0
aI0
aa(lp1264
I0
aI0
aI0
aI0
aI0
aI0
aI0
aI0
aa(lp1265
I0
aI0
aI0
aI0
aI0
aI0
aI0
aI0
aa(lp1266
I0
aI0
aI0
aI0
aI0
aI0
aI0
aI0
aa(lp1267
I0
aI0
aI0
aI0
aI0
aI0
aI0
aI0
aa(lp1268
I0
aI0
aI0
aI0
aI0
aI0
aI0
aI0
aa(lp1269
I0
aI0
aI0
aI0
aI0
aI0
aI0
aI0
aa(lp1270
I0
aI0
aI0
aI0
aI0
aI0
aI0
aI0
aa(lp1271
I0
aI0
aI0
aI0
aI0
aI0
aI0
aI0
aaa(lp1272
(lp1273
I0
aI0
aI0
aI0
aI0
aI0
aI0
aI0
aa(lp1274
I0
aI0
aI0
aI0
aI0
aI0
aI0
aI0
aa(lp1275
I0
aI0
aI0
aI0
aI0
aI0
aI0
aI0
aa(lp1276
I0
aI0
aI0
aI0
aI0
aI0
aI0
aI0
aa(lp1277
I0
aI0
aI1
aI1
aI1
aI1
aI0
aI0
aa(lp1278
I0
aI1
aI0
aI0
aI0
aI0
aI1
aI0
aa(lp1279
I0
aI0
aI0
aI0
aI0
aI0
aI1
aI0
aa(lp1280
I0
aI0
aI1
aI1
aI1
aI1
aI1
aI0
aa(lp1281
I0
aI1
aI0
aI0
aI0
aI0
aI1
aI0
aa(lp1282
I0
aI1
aI0
aI0
aI0
aI1
aI1
aI0
aa(lp1283
I0
aI0
aI1
aI1
aI1
aI0
aI1
aI0
aa(lp1284
I0
aI0
aI0
aI0
aI0
aI0
aI0
aI0
aaa(lp1285
(lp1286
I0
aI0
aI0
aI0
aI0
aI0
aI0
aI0
aa(lp1287
I0
aI0
aI0
aI0
aI0
aI0
aI0
aI0
aa(lp1288
I0
aI0
aI0
aI0
aI0
aI0
aI0
aI0
aa(lp1289
I0
aI1
aI0
aI0
aI0
aI0
aI0
aI0
aa(lp1290
I0
aI1
aI0
aI0
aI0
aI0
aI0
aI0
aa(lp1291
I0
aI1
aI0
aI0
aI0
aI0
aI0
aI0
aa(lp1292
I0
aI1
aI1
aI1
aI1
aI1
aI0
aI0
aa(lp1293
I0
aI1
aI0
aI0
aI0
aI0
aI1
aI0
aa(lp1294
I0
aI1
aI0
aI0
aI0
aI0
aI1
aI0
aa(lp1295
I0
aI1
aI0
aI0
aI0
aI0
aI1
aI0
aa(lp1296
I0
aI1
aI1
aI1
aI1
aI1
aI0
aI0
aa(lp1297
I0
aI0
aI0
aI0
aI0
aI0
aI0
aI0
aaa(lp1298
(lp1299
I0
aI0
aI0
aI0
aI0
aI0
aI0
aI0
aa(lp1300
I0
aI0
aI0
aI0
aI0
aI0
aI0
aI0
aa(lp1301
I0
aI0
aI0
aI0
aI0
aI0
aI0
aI0
aa(lp1302
I0
aI0
aI0
aI0
aI0
aI0
aI0
aI0
aa(lp1303
I0
aI0
aI0
aI0
aI0
aI0
aI0
aI0
aa(lp1304
I0
aI0
aI1
aI1
aI1
aI1
aI0
aI0
aa(lp1305
I0
aI1
aI0
aI0
aI0
aI0
aI0
aI0
aa(lp1306
I0
aI1
aI0
aI0
aI0
aI0
aI0
aI0
aa(lp1307
I0
aI1
aI0
aI0
aI0
aI0
aI0
aI0
aa(lp1308
I0
aI1
aI0
aI0
aI0
aI0
aI0
aI0
aa(lp1309
I0
aI0
aI1
aI1
aI1
aI1
aI0
aI0
aa(lp1310
I0
aI0
aI0
aI0
aI0
aI0
aI0
aI0
aaa(lp1311
(lp1312
I0
aI0
aI0
aI0
aI0
aI0
aI0
aI0
aa(lp1313
I0
aI0
aI0
aI0
aI0
aI0
aI0
aI0
aa(lp1314
I0
aI0
aI0
aI0
aI0
aI0
aI0
aI0
aa(lp1315
I0
aI0
aI0
aI0
aI0
aI0
aI1
aI0
aa(lp1316
I0
aI0
aI0
aI0
aI0
aI0
aI1
aI0
aa(lp1317
I0
aI0
aI0
aI0
aI0
aI0
aI1
aI0
aa(lp1318
I0
aI0
aI1
aI1
aI1
aI1
aI1
aI0
aa(lp1319
I0
aI1
aI0
aI0
aI0
aI0
aI1
aI0
aa(lp1320
I0
aI1
aI0
aI0
aI0
aI0
aI1
aI0
aa(lp1321
I0
aI1
aI0
aI0
aI0
aI0
aI1
aI0
aa(lp1322
I0
aI0
aI1
aI1
aI1
aI1
aI1
aI0
aa(lp1323
I0
aI0
aI0
aI0
aI0
aI0
aI0
aI0
aaa(lp1324
(lp1325
I0
aI0
aI0
aI0
aI0
aI0
aI0
aI0
aa(lp1326
I0
aI0
aI0
aI0
aI0
aI0
aI0
aI0
aa(lp1327
I0
aI0
aI0
aI0
aI0
aI0
aI0
aI0
aa(lp1328
I0
aI0
aI0
aI0
aI0
aI0
aI0
aI0
aa(lp1329
I0
aI0
aI0
aI0
aI0
aI0
aI0
aI0
aa(lp1330
I0
aI1
aI1
aI1
aI1
aI0
aI0
aI0
aa(lp1331
I1
aI0
aI0
aI0
aI0
aI1
aI0
aI0
aa(lp1332
I1
aI1
aI1
aI1
aI1
aI1
aI0
aI0
aa(lp1333
I1
aI0
aI0
aI0
aI0
aI0
aI0
aI0
aa(lp1334
I0
aI1
aI0
aI0
aI0
aI0
aI0
aI0
aa(lp1335
I0
aI0
aI1
aI1
aI1
aI0
aI0
aI0
aa(lp1336
I0
aI0
aI0
aI0
aI0
aI0
aI0
aI0
aaa(lp1337
(lp1338
I0
aI0
aI0
aI0
aI0
aI0
aI0
aI0
aa(lp1339
I0
aI0
aI0
aI0
aI0
aI0
aI0
aI0
aa(lp1340
I0
aI0
aI0
aI0
aI0
aI0
aI0
aI0
aa(lp1341
I0
aI0
aI0
aI1
aI1
aI0
aI0
aI0
aa(lp1342
I0
aI0
aI1
aI0
aI0
aI0
aI0
aI0
aa(lp1343
I0
aI0
aI1
aI0
aI0
aI0
aI0
aI0
aa(lp1344
I0
aI1
aI1
aI1
aI0
aI0
aI0
aI0
aa(lp1345
I0
aI0
aI1
aI0
aI0
aI0
aI0
aI0
aa(lp1346
I0
aI0
aI1
aI0
aI0
aI0
aI0
aI0
aa(lp1347
I0
aI0
aI1
aI0
aI0
aI0
aI0
aI0
aa(lp1348
I0
aI0
aI1
aI0
aI0
aI0
aI0
aI0
aa(lp1349
I0
aI0
aI0
aI0
aI0
aI0
aI0
aI0
aaa(lp1350
(lp1351
I0
aI0
aI0
aI0
aI0
aI0
aI0
aI0
aa(lp1352
I0
aI0
aI0
aI0
aI0
aI0
aI0
aI0
aa(lp1353
I0
aI0
aI0
aI0
aI0
aI0
aI0
aI0
aa(lp1354
I0
aI0
aI0
aI0
aI0
aI0
aI0
aI0
aa(lp1355
I0
aI0
aI1
aI1
aI1
aI1
aI0
aI0
aa(lp1356
I0
aI1
aI0
aI0
aI0
aI1
aI0
aI0
aa(lp1357
I0
aI1
aI0
aI0
aI0
aI1
aI0
aI0
aa(lp1358
I0
aI1
aI0
aI0
aI0
aI1
aI0
aI0
aa(lp1359
I0
aI0
aI1
aI1
aI1
aI1
aI0
aI0
aa(lp1360
I0
aI0
aI0
aI0
aI0
aI1
aI0
aI0
aa(lp1361
I0
aI1
aI0
aI0
aI0
aI1
aI0
aI0
aa(lp1362
I0
aI0
aI1
aI1
aI1
aI0
aI0
aI0
aaa(lp1363
(lp1364
I0
aI0
aI0
aI0
aI0
aI0
aI0
aI0
aa(lp1365
I0
aI0
aI0
aI0
aI0
aI0
aI0
aI0
aa(lp1366
I0
aI0
aI0
aI0
aI0
aI0
aI0
aI0
aa(lp1367
I0
aI1
aI0
aI0
aI0
aI0
aI0
aI0
aa(lp1368
I0
aI1
aI0
aI0
aI0
aI0
aI0
aI0
aa(lp1369
I0
aI1
aI0
aI0
aI0
aI0
aI0
aI0
aa(lp1370
I0
aI1
aI1
aI1
aI1
aI0
aI0
aI0
aa(lp1371
I0
aI1
aI0
aI0
aI0
aI1
aI0
aI0
aa(lp1372
I0
aI1
aI0
aI0
aI0
aI1
aI0
aI0
aa(lp1373
I0
aI1
aI0
aI0
aI0
aI1
aI0
aI0
aa(lp1374
I0
aI1
aI0
aI0
aI0
aI1
aI0
aI0
aa(lp1375
I0
aI0
aI0
aI0
aI0
aI0
aI0
aI0
aaa(lp1376
(lp1377
I0
aI0
aI0
aI0
aI0
aI0
aI0
aI0
aa(lp1378
I0
aI0
aI0
aI0
aI0
aI0
aI0
aI0
aa(lp1379
I0
aI0
aI0
aI0
aI0
aI0
aI0
aI0
aa(lp1380
I0
aI0
aI0
aI1
aI0
aI0
aI0
aI0
aa(lp1381
I0
aI0
aI0
aI0
aI0
aI0
aI0
aI0
aa(lp1382
I0
aI0
aI1
aI1
aI0
aI0
aI0
aI0
aa(lp1383
I0
aI0
aI0
aI1
aI0
aI0
aI0
aI0
aa(lp1384
I0
aI0
aI0
aI1
aI0
aI0
aI0
aI0
aa(lp1385
I0
aI0
aI0
aI1
aI0
aI0
aI0
aI0
aa(lp1386
I0
aI0
aI0
aI1
aI0
aI0
aI0
aI0
aa(lp1387
I0
aI0
aI1
aI1
aI1
aI0
aI0
aI0
aa(lp1388
I0
aI0
aI0
aI0
aI0
aI0
aI0
aI0
aaa(lp1389
(lp1390
I0
aI0
aI0
aI0
aI0
aI0
aI0
aI0
aa(lp1391
I0
aI0
aI0
aI0
aI0
aI0
aI0
aI0
aa(lp1392
I0
aI0
aI0
aI0
aI0
aI0
aI0
aI0
aa(lp1393
I0
aI0
aI0
aI0
aI1
aI0
aI0
aI0
aa(lp1394
I0
aI0
aI0
aI0
aI0
aI0
aI0
aI0
aa(lp1395
I0
aI0
aI0
aI0
aI1
aI0
aI0
aI0
aa(lp1396
I0
aI0
aI0
aI0
aI1
aI0
aI0
aI0
aa(lp1397
I0
aI0
aI0
aI0
aI1
aI0
aI0
aI0
aa(lp1398
I0
aI0
aI0
aI0
aI1
aI0
aI0
aI0
aa(lp1399
I0
aI0
aI0
aI0
aI1
aI0
aI0
aI0
aa(lp1400
I0
aI0
aI0
aI0
aI1
aI0
aI0
aI0
aa(lp1401
I0
aI0
aI1
aI1
aI0
aI0
aI0
aI0
aaa(lp1402
(lp1403
I0
aI0
aI0
aI0
aI0
aI0
aI0
aI0
aa(lp1404
I0
aI0
aI0
aI0
aI0
aI0
aI0
aI0
aa(lp1405
I0
aI0
aI0
aI0
aI0
aI0
aI0
aI0
aa(lp1406
I0
aI1
aI0
aI0
aI0
aI0
aI0
aI0
aa(lp1407
I0
aI1
aI0
aI0
aI0
aI1
aI0
aI0
aa(lp1408
I0
aI1
aI0
aI0
aI1
aI0
aI0
aI0
aa(lp1409
I0
aI1
aI0
aI1
aI0
aI0
aI0
aI0
aa(lp1410
I0
aI1
aI1
aI0
aI0
aI0
aI0
aI0
aa(lp1411
I0
aI1
aI0
aI1
aI0
aI0
aI0
aI0
aa(lp1412
I0
aI1
aI0
aI0
aI1
aI0
aI0
aI0
aa(lp1413
I0
aI1
aI0
aI0
aI0
aI1
aI0
aI0
aa(lp1414
I0
aI0
aI0
aI0
aI0
aI0
aI0
aI0
aaa(lp1415
(lp1416
I0
aI0
aI0
aI0
aI0
aI0
aI0
aI0
aa(lp1417
I0
aI0
aI0
aI0
aI0
aI0
aI0
aI0
aa(lp1418
I0
aI0
aI0
aI0
aI0
aI0
aI0
aI0
aa(lp1419
I0
aI0
aI0
aI0
aI1
aI0
aI0
aI0
aa(lp1420
I0
aI0
aI0
aI0
aI1
aI0
aI0
aI0
aa(lp1421
I0
aI0
aI0
aI0
aI1
aI0
aI0
aI0
aa(lp1422
I0
aI0
aI0
aI0
aI1
aI0
aI0
aI0
aa(lp1423
I0
aI0
aI0
aI0
aI1
aI0
aI0
aI0
aa(lp1424
I0
aI0
aI0
aI0
aI1
aI0
aI0
aI0
aa(lp1425
I0
aI0
aI0
aI0
aI1
aI0
aI0
aI0
aa(lp1426
I0
aI0
aI0
aI0
aI1
aI0
aI0
aI0
aa(lp1427
I0
aI0
aI0
aI0
aI0
aI0
aI0
aI0
aaa(lp1428
(lp1429
I0
aI0
aI0
aI0
aI0
aI0
aI0
aI0
aa(lp1430
I0
aI0
aI0
aI0
aI0
aI0
aI0
aI0
aa(lp1431
I0
aI0
aI0
aI0
aI0
aI0
aI0
aI0
aa(lp1432
I0
aI0
aI0
aI0
aI0
aI0
aI0
aI0
aa(lp1433
I0
aI0
aI0
aI0
aI0
aI0
aI0
aI0
aa(lp1434
I1
aI0
aI1
aI0
aI1
aI0
aI1
aI0
aa(lp1435
I1
aI1
aI0
aI1
aI0
aI1
aI1
aI0
aa(lp1436
I1
aI0
aI0
aI1
aI0
aI0
aI1
aI0
aa(lp1437
I1
aI0
aI0
aI1
aI0
aI0
aI1
aI0
aa(lp1438
I1
aI0
aI0
aI1
aI0
aI0
aI1
aI0
aa(lp1439
I1
aI0
aI0
aI1
aI0
aI0
aI1
aI0
aa(lp1440
I0
aI0
aI0
aI0
aI0
aI0
aI0
aI0
aaa(lp1441
(lp1442
I0
aI0
aI0
aI0
aI0
aI0
aI0
aI0
aa(lp1443
I0
aI0
aI0
aI0
aI0
aI0
aI0
aI0
aa(lp1444
I0
aI0
aI0
aI0
aI0
aI0
aI0
aI0
aa(lp1445
I0
aI0
aI0
aI0
aI0
aI0
aI0
aI0
aa(lp1446
I0
aI0
aI0
aI0
aI0
aI0
aI0
aI0
aa(lp1447
I0
aI1
aI0
aI1
aI1
aI1
aI0
aI0
aa(lp1448
I0
aI1
aI1
aI0
aI0
aI0
aI1
aI0
aa(lp1449
I0
aI1
aI0
aI0
aI0
aI0
aI1
aI0
aa(lp1450
I0
aI1
aI0
aI0
aI0
aI0
aI1
aI0
aa(lp1451
I0
aI1
aI0
aI0
aI0
aI0
aI1
aI0
aa(lp1452
I0
aI1
aI0
aI0
aI0
aI0
aI1
aI0
aa(lp1453
I0
aI0
aI0
aI0
aI0
aI0
aI0
aI0
aaa(lp1454
(lp1455
I0
aI0
aI0
aI0
aI0
aI0
aI0
aI0
aa(lp1456
I0
aI0
aI0
aI0
aI0
aI0
aI0
aI0
aa(lp1457
I0
aI0
aI0
aI0
aI0
aI0
aI0
aI0
aa(lp1458
I0
aI0
aI0
aI0
aI0
aI0
aI0
aI0
aa(lp1459
I0
aI0
aI0
aI0
aI0
aI0
aI0
aI0
aa(lp1460
I0
aI0
aI1
aI1
aI1
aI0
aI0
aI0
aa(lp1461
I0
aI1
aI0
aI0
aI0
aI1
aI0
aI0
aa(lp1462
I1
aI0
aI0
aI0
aI0
aI0
aI1
aI0
aa(lp1463
I1
aI0
aI0
aI0
aI0
aI0
aI1
aI0
aa(lp1464
I0
aI1
aI0
aI0
aI0
aI1
aI0
aI0
aa(lp1465
I0
aI0
aI1
aI1
aI1
aI0
aI0
aI0
aa(lp1466
I0
aI0
aI0
aI0
aI0
aI0
aI0
aI0
aaa(lp1467
(lp1468
I0
aI0
aI0
aI0
aI0
aI0
aI0
aI0
aa(lp1469
I0
aI0
aI0
aI0
aI0
aI0
aI0
aI0
aa(lp1470
I0
aI0
aI0
aI0
aI0
aI0
aI0
aI0
aa(lp1471
I0
aI0
aI0
aI0
aI0
aI0
aI0
aI0
aa(lp1472
I0
aI0
aI0
aI0
aI0
aI0
aI0
aI0
aa(lp1473
I0
aI1
aI1
aI1
aI1
aI1
aI0
aI0
aa(lp1474
I0
aI1
aI0
aI0
aI0
aI0
aI1
aI0
aa(lp1475
I0
aI1
aI0
aI0
aI0
aI0
aI1
aI0
aa(lp1476
I0
aI1
aI1
aI1
aI1
aI1
aI0
aI0
aa(lp1477
I0
aI1
aI0
aI0
aI0
aI0
aI0
aI0
aa(lp1478
I0
aI1
aI0
aI0
aI0
aI0
aI0
aI0
aa(lp1479
I0
aI1
aI0
aI0
aI0
aI0
aI0
aI0
aaa(lp1480
(lp1481
I0
aI0
aI0
aI0
aI0
aI0
aI0
aI0
aa(lp1482
I0
aI0
aI0
aI0
aI0
aI0
aI0
aI0
aa(lp1483
I0
aI0
aI0
aI0
aI0
aI0
aI0
aI0
aa(lp1484
I0
aI0
aI0
aI0
aI0
aI0
aI0
aI0
aa(lp1485
I0
aI0
aI0
aI0
aI0
aI0
aI0
aI0
aa(lp1486
I0
aI1
aI1
aI1
aI1
aI1
aI0
aI0
aa(lp1487
I1
aI0
aI0
aI0
aI0
aI1
aI0
aI0
aa(lp1488
I1
aI0
aI0
aI0
aI0
aI1
aI0
aI0
aa(lp1489
I0
aI1
aI1
aI1
aI1
aI1
aI0
aI0
aa(lp1490
I0
aI0
aI0
aI0
aI0
aI1
aI0
aI0
aa(lp1491
I0
aI0
aI0
aI0
aI0
aI1
aI0
aI0
aa(lp1492
I0
aI0
aI0
aI0
aI0
aI1
aI1
aI0
aaa(lp1493
(lp1494
I0
aI0
aI0
aI0
aI0
aI0
aI0
aI0
aa(lp1495
I0
aI0
aI0
aI0
aI0
aI0
aI0
aI0
aa(lp1496
I0
aI0
aI0
aI0
aI0
aI0
aI0
aI0
aa(lp1497
I0
aI0
aI0
aI0
aI0
aI0
aI0
aI0
aa(lp1498
I0
aI0
aI0
aI0
aI0
aI0
aI0
aI0
aa(lp1499
I0
aI1
aI0
aI1
aI1
aI1
aI0
aI0
aa(lp1500
I0
aI1
aI1
aI0
aI0
aI0
aI1
aI0
aa(lp1501
I0
aI1
aI0
aI0
aI0
aI0
aI0
aI0
aa(lp1502
I0
aI1
aI0
aI0
aI0
aI0
aI0
aI0
aa(lp1503
I0
aI1
aI0
aI0
aI0
aI0
aI0
aI0
aa(lp1504
I0
aI1
aI0
aI0
aI0
aI0
aI0
aI0
aa(lp1505
I0
aI0
aI0
aI0
aI0
aI0
aI0
aI0
aaa(lp1506
(lp1507
I0
aI0
aI0
aI0
aI0
aI0
aI0
aI0
aa(lp1508
I0
aI0
aI0
aI0
aI0
aI0
aI0
aI0
aa(lp1509
I0
aI0
aI0
aI0
aI0
aI0
aI0
aI0
aa(lp1510
I0
aI0
aI0
aI0
aI0
aI0
aI0
aI0
aa(lp1511
I0
aI0
aI0
aI0
aI0
aI0
aI0
aI0
aa(lp1512
I0
aI0
aI1
aI1
aI1
aI1
aI1
aI0
aa(lp1513
I0
aI1
aI0
aI0
aI0
aI0
aI0
aI0
aa(lp1514
I0
aI1
aI1
aI1
aI0
aI0
aI0
aI0
aa(lp1515
I0
aI0
aI0
aI0
aI1
aI1
aI1
aI0
aa(lp1516
I0
aI0
aI0
aI0
aI0
aI0
aI1
aI0
aa(lp1517
I0
aI1
aI1
aI1
aI1
aI1
aI0
aI0
aa(lp1518
I0
aI0
aI0
aI0
aI0
aI0
aI0
aI0
aaa(lp1519
(lp1520
I0
aI0
aI0
aI0
aI0
aI0
aI0
aI0
aa(lp1521
I0
aI0
aI0
aI0
aI0
aI0
aI0
aI0
aa(lp1522
I0
aI0
aI0
aI0
aI0
aI0
aI0
aI0
aa(lp1523
I0
aI0
aI0
aI1
aI0
aI0
aI0
aI0
aa(lp1524
I0
aI0
aI0
aI1
aI0
aI0
aI0
aI0
aa(lp1525
I0
aI0
aI1
aI1
aI1
aI0
aI0
aI0
aa(lp1526
I0
aI0
aI0
aI1
aI0
aI0
aI0
aI0
aa(lp1527
I0
aI0
aI0
aI1
aI0
aI0
aI0
aI0
aa(lp1528
I0
aI0
aI0
aI1
aI0
aI0
aI0
aI0
aa(lp1529
I0
aI0
aI0
aI1
aI0
aI0
aI0
aI0
aa(lp1530
I0
aI0
aI0
aI0
aI1
aI1
aI0
aI0
aa(lp1531
I0
aI0
aI0
aI0
aI0
aI0
aI0
aI0
aaa(lp1532
(lp1533
I0
aI0
aI0
aI0
aI0
aI0
aI0
aI0
aa(lp1534
I0
aI0
aI0
aI0
aI0
aI0
aI0
aI0
aa(lp1535
I0
aI0
aI0
aI0
aI0
aI0
aI0
aI0
aa(lp1536
I0
aI0
aI0
aI0
aI0
aI0
aI0
aI0
aa(lp1537
I0
aI0
aI0
aI0
aI0
aI0
aI0
aI0
aa(lp1538
I0
aI1
aI0
aI0
aI0
aI0
aI1
aI0
aa(lp1539
I0
aI1
aI0
aI0
aI0
aI0
aI1
aI0
aa(lp1540
I0
aI1
aI0
aI0
aI0
aI0
aI1
aI0
aa(lp1541
I0
aI1
aI0
aI0
aI0
aI0
aI1
aI0
aa(lp1542
I0
aI1
aI0
aI0
aI0
aI1
aI1
aI0
aa(lp1543
I0
aI0
aI1
aI1
aI1
aI0
aI1
aI0
aa(lp1544
I0
aI0
aI0
aI0
aI0
aI0
aI0
aI0
aaa(lp1545
(lp1546
I0
aI0
aI0
aI0
aI0
aI0
aI0
aI0
aa(lp1547
I0
aI0
aI0
aI0
aI0
aI0
aI0
aI0
aa(lp1548
I0
aI0
aI0
aI0
aI0
aI0
aI0
aI0
aa(lp1549
I0
aI0
aI0
aI0
aI0
aI0
aI0
aI0
aa(lp1550
I0
aI0
aI0
aI0
aI0
aI0
aI0
aI0
aa(lp1551
I0
aI1
aI0
aI0
aI0
aI1
aI0
aI0
aa(lp1552
I0
aI1
aI0
aI0
aI0
aI1
aI0
aI0
aa(lp1553
I0
aI0
aI1
aI0
aI1
aI0
aI0
aI0
aa(lp1554
I0
aI0
aI1
aI0
aI1
aI0
aI0
aI0
aa(lp1555
I0
aI0
aI1
aI0
aI1
aI0
aI0
aI0
aa(lp1556
I0
aI0
aI0
aI1
aI0
aI0
aI0
aI0
aa(lp1557
I0
aI0
aI0
aI0
aI0
aI0
aI0
aI0
aaa(lp1558
(lp1559
I0
aI0
aI0
aI0
aI0
aI0
aI0
aI0
aa(lp1560
I0
aI0
aI0
aI0
aI0
aI0
aI0
aI0
aa(lp1561
I0
aI0
aI0
aI0
aI0
aI0
aI0
aI0
aa(lp1562
I0
aI0
aI0
aI0
aI0
aI0
aI0
aI0
aa(lp1563
I0
aI0
aI0
aI0
aI0
aI0
aI0
aI0
aa(lp1564
I1
aI0
aI0
aI0
aI0
aI0
aI1
aI0
aa(lp1565
I1
aI0
aI0
aI1
aI0
aI0
aI1
aI0
aa(lp1566
I1
aI0
aI0
aI1
aI0
aI0
aI1
aI0
aa(lp1567
I1
aI0
aI1
aI0
aI1
aI0
aI1
aI0
aa(lp1568
I1
aI1
aI0
aI0
aI0
aI1
aI1
aI0
aa(lp1569
I1
aI0
aI0
aI0
aI0
aI0
aI1
aI0
aa(lp1570
I0
aI0
aI0
aI0
aI0
aI0
aI0
aI0
aaa(lp1571
(lp1572
I0
aI0
aI0
aI0
aI0
aI0
aI0
aI0
aa(lp1573
I0
aI0
aI0
aI0
aI0
aI0
aI0
aI0
aa(lp1574
I0
aI0
aI0
aI0
aI0
aI0
aI0
aI0
aa(lp1575
I0
aI0
aI0
aI0
aI0
aI0
aI0
aI0
aa(lp1576
I0
aI0
aI0
aI0
aI0
aI0
aI0
aI0
aa(lp1577
I0
aI1
aI0
aI0
aI0
aI0
aI1
aI0
aa(lp1578
I0
aI0
aI1
aI0
aI0
aI1
aI0
aI0
aa(lp1579
I0
aI0
aI0
aI1
aI1
aI0
aI0
aI0
aa(lp1580
I0
aI0
aI0
aI1
aI1
aI0
aI0
aI0
aa(lp1581
I0
aI0
aI1
aI0
aI0
aI1
aI0
aI0
aa(lp1582
I0
aI1
aI0
aI0
aI0
aI0
aI1
aI0
aa(lp1583
I0
aI0
aI0
aI0
aI0
aI0
aI0
aI0
aaa(lp1584
(lp1585
I0
aI0
aI0
aI0
aI0
aI0
aI0
aI0
aa(lp1586
I0
aI0
aI0
aI0
aI0
aI0
aI0
aI0
aa(lp1587
I0
aI0
aI0
aI0
aI0
aI0
aI0
aI0
aa(lp1588
I0
aI0
aI0
aI0
aI0
aI0
aI0
aI0
aa(lp1589
I0
aI0
aI0
aI0
aI0
aI0
aI0
aI0
aa(lp1590
I0
aI1
aI0
aI0
aI0
aI0
aI1
aI0
aa(lp1591
I0
aI1
aI0
aI0
aI0
aI0
aI1
aI0
aa(lp1592
I0
aI1
aI0
aI0
aI0
aI0
aI1
aI0
aa(lp1593
I0
aI0
aI1
aI0
aI0
aI1
aI0
aI0
aa(lp1594
I0
aI0
aI0
aI1
aI1
aI0
aI0
aI0
aa(lp1595
I0
aI0
aI0
aI1
aI0
aI0
aI0
aI0
aa(lp1596
I0
aI1
aI1
aI0
aI0
aI0
aI0
aI0
aaa(lp1597
(lp1598
I0
aI0
aI0
aI0
aI0
aI0
aI0
aI0
aa(lp1599
I0
aI0
aI0
aI0
aI0
aI0
aI0
aI0
aa(lp1600
I0
aI0
aI0
aI0
aI0
aI0
aI0
aI0
aa(lp1601
I0
aI0
aI0
aI0
aI0
aI0
aI0
aI0
aa(lp1602
I0
aI0
aI0
aI0
aI0
aI0
aI0
aI0
aa(lp1603
I0
aI1
aI1
aI1
aI1
aI1
aI1
aI0
aa(lp1604
I0
aI0
aI0
aI0
aI0
aI1
aI0
aI0
aa(lp1605
I0
aI0
aI0
aI0
aI1
aI0
aI0
aI0
aa(lp1606
I0
aI0
aI0
aI1
aI0
aI0
aI0
aI0
aa(lp1607
I0
aI0
aI1
aI0
aI0
aI0
aI0
aI0
aa(lp1608
I0
aI1
aI1
aI1
aI1
aI1
aI1
aI0
aa(lp1609
I0
aI0
aI0
aI0
aI0
aI0
aI0
aI0
aaa(lp1610
(lp1611
I0
aI0
aI0
aI0
aI0
aI1
aI1
aI0
aa(lp1612
I0
aI0
aI0
aI0
aI1
aI0
aI0
aI0
aa(lp1613
I0
aI0
aI0
aI1
aI0
aI0
aI0
aI0
aa(lp1614
I0
aI0
aI0
aI1
aI0
aI0
aI0
aI0
aa(lp1615
I0
aI0
aI0
aI1
aI0
aI0
aI0
aI0
aa(lp1616
I0
aI1
aI1
aI0
aI0
aI0
aI0
aI0
aa(lp1617
I0
aI0
aI0
aI1
aI0
aI0
aI0
aI0
aa(lp1618
I0
aI0
aI0
aI1
aI0
aI0
aI0
aI0
aa(lp1619
I0
aI0
aI0
aI1
aI0
aI0
aI0
aI0
aa(lp1620
I0
aI0
aI0
aI0
aI1
aI0
aI0
aI0
aa(lp1621
I0
aI0
aI0
aI0
aI0
aI1
aI1
aI0
aa(lp1622
I0
aI0
aI0
aI0
aI0
aI0
aI0
aI0
aaa(lp1623
(lp1624
I0
aI0
aI0
aI1
aI0
aI0
aI0
aI0
aa(lp1625
I0
aI0
aI0
aI1
aI0
aI0
aI0
aI0
aa(lp1626
I0
aI0
aI0
aI1
aI0
aI0
aI0
aI0
aa(lp1627
I0
aI0
aI0
aI1
aI0
aI0
aI0
aI0
aa(lp1628
I0
aI0
aI0
aI0
aI0
aI0
aI0
aI0
aa(lp1629
I0
aI0
aI0
aI0
aI0
aI0
aI0
aI0
aa(lp1630
I0
aI0
aI0
aI0
aI0
aI0
aI0
aI0
aa(lp1631
I0
aI0
aI0
aI1
aI0
aI0
aI0
aI0
aa(lp1632
I0
aI0
aI0
aI1
aI0
aI0
aI0
aI0
aa(lp1633
I0
aI0
aI0
aI1
aI0
aI0
aI0
aI0
aa(lp1634
I0
aI0
aI0
aI1
aI0
aI0
aI0
aI0
aa(lp1635
I0
aI0
aI0
aI0
aI0
aI0
aI0
aI0
aaa(lp1636
(lp1637
I0
aI1
aI1
aI0
aI0
aI0
aI0
aI0
aa(lp1638
I0
aI0
aI0
aI1
aI0
aI0
aI0
aI0
aa(lp1639
I0
aI0
aI0
aI0
aI1
aI0
aI0
aI0
aa(lp1640
I0
aI0
aI0
aI0
aI1
aI0
aI0
aI0
aa(lp1641
I0
aI0
aI0
aI0
aI1
aI0
aI0
aI0
aa(lp1642
I0
aI0
aI0
aI0
aI0
aI1
aI1
aI0
aa(lp1643
I0
aI0
aI0
aI0
aI1
aI0
aI0
aI0
aa(lp1644
I0
aI0
aI0
aI0
aI1
aI0
aI0
aI0
aa(lp1645
I0
aI0
aI0
aI0
aI1
aI0
aI0
aI0
aa(lp1646
I0
aI0
aI0
aI1
aI0
aI0
aI0
aI0
aa(lp1647
I0
aI1
aI1
aI0
aI0
aI0
aI0
aI0
aa(lp1648
I0
aI0
aI0
aI0
aI0
aI0
aI0
aI0
aaa(lp1649
(lp1650
I0
aI1
aI1
aI0
aI0
aI0
aI0
aI0
aa(lp1651
I1
aI0
aI0
aI1
aI0
aI0
aI1
aI0
aa(lp1652
I0
aI0
aI0
aI0
aI1
aI1
aI0
aI0
aa(lp1653
I0
aI0
aI0
aI0
aI0
aI0
aI0
aI0
aa(lp1654
I0
aI0
aI0
aI0
aI0
aI0
aI0
aI0
aa(lp1655
I0
aI0
aI0
aI0
aI0
aI0
aI0
aI0
aa(lp1656
I0
aI0
aI0
aI0
aI0
aI0
aI0
aI0
aa(lp1657
I0
aI0
aI0
aI0
aI0
aI0
aI0
aI0
aa(lp1658
I0
aI0
aI0
aI0
aI0
aI0
aI0
aI0
aa(lp1659
I0
aI0
aI0
aI0
aI0
aI0
aI0
aI0
aa(lp1660
I0
aI0
aI0
aI0
aI0
aI0
aI0
aI0
aa(lp1661
I0
aI0
aI0
aI0
aI0
aI0
aI0
aI0
aaa(lp1662
(lp1663
I1
aI1
aI1
aI1
aI1
aI1
aI1
aI0
aa(lp1664
I1
aI1
aI1
aI1
aI1
aI1
aI1
aI0
aa(lp1665
I1
aI1
aI1
aI1
aI1
aI1
aI1
aI0
aa(lp1666
I1
aI1
aI1
aI1
aI1
aI1
aI1
aI0
aa(lp1667
I1
aI1
aI1
aI1
aI1
aI1
aI1
aI0
aa(lp1668
I1
aI1
aI1
aI1
aI1
aI1
aI1
aI0
aa(lp1669
I1
aI1
aI1
aI1
aI1
aI1
aI1
aI0
aa(lp1670
I1
aI1
aI1
aI1
aI1
aI1
aI1
aI0
aa(lp1671
I1
aI1
aI1
aI1
aI1
aI1
aI1
aI0
aa(lp1672
I1
aI1
aI1
aI1
aI1
aI1
aI1
aI0
aa(lp1673
I1
aI1
aI1
aI1
aI1
aI1
aI1
aI0
aa(lp1674
I0
aI0
aI0
aI0
aI0
aI0
aI0
aI0
aaa(lp1675
(lp1676
I0
aI0
aI0
aI0
aI0
aI0
aI0
aI0
aa(lp1677
I0
aI0
aI0
aI0
aI0
aI0
aI0
aI0
aa(lp1678
I0
aI0
aI0
aI0
aI0
aI0
aI0
aI0
aa(lp1679
I0
aI0
aI0
aI0
aI0
aI0
aI0
aI0
aa(lp1680
I0
aI0
aI0
aI0
aI0
aI0
aI0
aI0
aa(lp1681
I0
aI0
aI0
aI0
aI0
aI0
aI0
aI0
aa(lp1682
I0
aI0
aI0
aI0
aI0
aI0
aI0
aI0
aa(lp1683
I0
aI0
aI0
aI0
aI0
aI0
aI0
aI0
aa(lp1684
I0
aI0
aI0
aI0
aI0
aI0
aI0
aI0
aa(lp1685
I0
aI0
aI0
aI0
aI0
aI0
aI0
aI0
aa(lp1686
I0
aI0
aI0
aI0
aI0
aI0
aI0
aI0
aa(lp1687
I0
aI0
aI0
aI0
aI0
aI0
aI0
aI0
aaa(lp1688
(lp1689
I1
aI1
aI1
aI1
aI0
aI0
aI0
aI0
aa(lp1690
I1
aI1
aI1
aI1
aI0
aI0
aI0
aI0
aa(lp1691
I1
aI1
aI1
aI1
aI0
aI0
aI0
aI0
aa(lp1692
I1
aI1
aI1
aI1
aI0
aI0
aI0
aI0
aa(lp1693
I0
aI0
aI0
aI0
aI0
aI0
aI0
aI0
aa(lp1694
I0
aI0
aI0
aI0
aI0
aI0
aI0
aI0
aa(lp1695
I0
aI0
aI0
aI0
aI0
aI0
aI0
aI0
aa(lp1696
I0
aI0
aI0
aI0
aI0
aI0
aI0
aI0
aa(lp1697
I0
aI0
aI0
aI0
aI0
aI0
aI0
aI0
aa(lp1698
I0
aI0
aI0
aI0
aI0
aI0
aI0
aI0
aa(lp1699
I0
aI0
aI0
aI0
aI0
aI0
aI0
aI0
aa(lp1700
I0
aI0
aI0
aI0
aI0
aI0
aI0
aI0
aaa(lp1701
(lp1702
I0
aI0
aI0
aI0
aI0
aI0
aI0
aI0
aa(lp1703
I0
aI0
aI0
aI0
aI0
aI0
aI0
aI0
aa(lp1704
I0
aI0
aI0
aI0
aI0
aI0
aI0
aI0
aa(lp1705
I0
aI0
aI0
aI0
aI0
aI0
aI0
aI0
aa(lp1706
I1
aI1
aI1
aI1
aI0
aI0
aI0
aI0
aa(lp1707
I1
aI1
aI1
aI1
aI0
aI0
aI0
aI0
aa(lp1708
I1
aI1
aI1
aI1
aI0
aI0
aI0
aI0
aa(lp1709
I1
aI1
aI1
aI1
aI0
aI0
aI0
aI0
aa(lp1710
I0
aI0
aI0
aI0
aI0
aI0
aI0
aI0
aa(lp1711
I0
aI0
aI0
aI0
aI0
aI0
aI0
aI0
aa(lp1712
I0
aI0
aI0
aI0
aI0
aI0
aI0
aI0
aa(lp1713
I0
aI0
aI0
aI0
aI0
aI0
aI0
aI0
aaa(lp1714
(lp1715
I1
aI1
aI1
aI1
aI0
aI0
aI0
aI0
aa(lp1716
I1
aI1
aI1
aI1
aI0
aI0
aI0
aI0
aa(lp1717
I1
aI1
aI1
aI1
aI0
aI0
aI0
aI0
aa(lp1718
I1
aI1
aI1
aI1
aI0
aI0
aI0
aI0
aa(lp1719
I1
aI1
aI1
aI1
aI0
aI0
aI0
aI0
aa(lp1720
I1
aI1
aI1
aI1
aI0
aI0
aI0
aI0
aa(lp1721
I1
aI1
aI1
aI1
aI0
aI0
aI0
aI0
aa(lp1722
I1
aI1
aI1
aI1
aI0
aI0
aI0
aI0
aa(lp1723
I0
aI0
aI0
aI0
aI0
aI0
aI0
aI0
aa(lp1724
I0
aI0
aI0
aI0
aI0
aI0
aI0
aI0
aa(lp1725
I0
aI0
aI0
aI0
aI0
aI0
aI0
aI0
aa(lp1726
I0
aI0
aI0
aI0
aI0
aI0
aI0
aI0
aaa(lp1727
(lp1728
I0
aI0
aI0
aI0
aI0
aI0
aI0
aI0
aa(lp1729
I0
aI0
aI0
aI0
aI0
aI0
aI0
aI0
aa(lp1730
I0
aI0
aI0
aI0
aI0
aI0
aI0
aI0
aa(lp1731
I0
aI0
aI0
aI0
aI0
aI0
aI0
aI0
aa(lp1732
I0
aI0
aI0
aI0
aI0
aI0
aI0
aI0
aa(lp1733
I0
aI0
aI0
aI0
aI0
aI0
aI0
aI0
aa(lp1734
I0
aI0
aI0
aI0
aI0
aI0
aI0
aI0
aa(lp1735
I0
aI0
aI0
aI0
aI0
aI0
aI0
aI0
aa(lp1736
I1
aI1
aI1
aI1
aI0
aI0
aI0
aI0
aa(lp1737
I1
aI1
aI1
aI1
aI0
aI0
aI0
aI0
aa(lp1738
I1
aI1
aI1
aI1
aI0
aI0
aI0
aI0
aa(lp1739
I1
aI1
aI1
aI1
aI0
aI0
aI0
aI0
aaa(lp1740
(lp1741
I1
aI1
aI1
aI1
aI0
aI0
aI0
aI0
aa(lp1742
I1
aI1
aI1
aI1
aI0
aI0
aI0
aI0
aa(lp1743
I1
aI1
aI1
aI1
aI0
aI0
aI0
aI0
aa(lp1744
I1
aI1
aI1
aI1
aI0
aI0
aI0
aI0
aa(lp1745
I0
aI0
aI0
aI0
aI0
aI0
aI0
aI0
aa(lp1746
I0
aI0
aI0
aI0
aI0
aI0
aI0
aI0
aa(lp1747
I0
aI0
aI0
aI0
aI0
aI0
aI0
aI0
aa(lp1748
I0
aI0
aI0
aI0
aI0
aI0
aI0
aI0
aa(lp1749
I1
aI1
aI1
aI1
aI0
aI0
aI0
aI0
aa(lp1750
I1
aI1
aI1
aI1
aI0
aI0
aI0
aI0
aa(lp1751
I1
aI1
aI1
aI1
aI0
aI0
aI0
aI0
aa(lp1752
I1
aI1
aI1
aI1
aI0
aI0
aI0
aI0
aaa(lp1753
(lp1754
I0
aI0
aI0
aI0
aI0
aI0
aI0
aI0
aa(lp1755
I0
aI0
aI0
aI0
aI0
aI0
aI0
aI0
aa(lp1756
I0
aI0
aI0
aI0
aI0
aI0
aI0
aI0
aa(lp1757
I0
aI0
aI0
aI0
aI0
aI0
aI0
aI0
aa(lp1758
I1
aI1
aI1
aI1
aI0
aI0
aI0
aI0
aa(lp1759
I1
aI1
aI1
aI1
aI0
aI0
aI0
aI0
aa(lp1760
I1
aI1
aI1
aI1
aI0
aI0
aI0
aI0
aa(lp1761
I1
aI1
aI1
aI1
aI0
aI0
aI0
aI0
aa(lp1762
I1
aI1
aI1
aI1
aI0
aI0
aI0
aI0
aa(lp1763
I1
aI1
aI1
aI1
aI0
aI0
aI0
aI0
aa(lp1764
I1
aI1
aI1
aI1
aI0
aI0
aI0
aI0
aa(lp1765
I1
aI1
aI1
aI1
aI0
aI0
aI0
aI0
aaa(lp1766
(lp1767
I1
aI1
aI1
aI1
aI0
aI0
aI0
aI0
aa(lp1768
I1
aI1
aI1
aI1
aI0
aI0
aI0
aI0
aa(lp1769
I1
aI1
aI1
aI1
aI0
aI0
aI0
aI0
aa(lp1770
I1
aI1
aI1
aI1
aI0
aI0
aI0
aI0
aa(lp1771
I1
aI1
aI1
aI1
aI0
aI0
aI0
aI0
aa(lp1772
I1
aI1
aI1
aI1
aI0
aI0
aI0
aI0
aa(lp1773
I1
aI1
aI1
aI1
aI0
aI0
aI0
aI0
aa(lp1774
I1
aI1
aI1
aI1
aI0
aI0
aI0
aI0
aa(lp1775
I1
aI1
aI1
aI1
aI0
aI0
aI0
aI0
aa(lp1776
I1
aI1
aI1
aI1
aI0
aI0
aI0
aI0
aa(lp1777
I1
aI1
aI1
aI1
aI0
aI0
aI0
aI0
aa(lp1778
I1
aI1
aI1
aI1
aI0
aI0
aI0
aI0
aaa(lp1779
(lp1780
I0
aI0
aI0
aI0
aI1
aI1
aI1
aI1
aa(lp1781
I0
aI0
aI0
aI0
aI1
aI1
aI1
aI1
aa(lp1782
I0
aI0
aI0
aI0
aI1
aI1
aI1
aI1
aa(lp1783
I0
aI0
aI0
aI0
aI1
aI1
aI1
aI1
aa(lp1784
I0
aI0
aI0
aI0
aI0
aI0
aI0
aI0
aa(lp1785
I0
aI0
aI0
aI0
aI0
aI0
aI0
aI0
aa(lp1786
I0
aI0
aI0
aI0
aI0
aI0
aI0
aI0
aa(lp1787
I0
aI0
aI0
aI0
aI0
aI0
aI0
aI0
aa(lp1788
I0
aI0
aI0
aI0
aI0
aI0
aI0
aI0
aa(lp1789
I0
aI0
aI0
aI0
aI0
aI0
aI0
aI0
aa(lp1790
I0
aI0
aI0
aI0
aI0
aI0
aI0
aI0
aa(lp1791
I0
aI0
aI0
aI0
aI0
aI0
aI0
aI0
aaa(lp1792
(lp1793
I1
aI1
aI1
aI1
aI1
aI1
aI1
aI1
aa(lp1794
I1
aI1
aI1
aI1
aI1
aI1
aI1
aI1
aa(lp1795
I1
aI1
aI1
aI1
aI1
aI1
aI1
aI1
aa(lp1796
I1
aI1
aI1
aI1
aI1
aI1
aI1
aI1
aa(lp1797
I0
aI0
aI0
aI0
aI0
aI0
aI0
aI0
aa(lp1798
I0
aI0
aI0
aI0
aI0
aI0
aI0
aI0
aa(lp1799
I0
aI0
aI0
aI0
aI0
aI0
aI0
aI0
aa(lp1800
I0
aI0
aI0
aI0
aI0
aI0
aI0
aI0
aa(lp1801
I0
aI0
aI0
aI0
aI0
aI0
aI0
aI0
aa(lp1802
I0
aI0
aI0
aI0
aI0
aI0
aI0
aI0
aa(lp1803
I0
aI0
aI0
aI0
aI0
aI0
aI0
aI0
aa(lp1804
I0
aI0
aI0
aI0
aI0
aI0
aI0
aI0
aaa(lp1805
(lp1806
I0
aI0
aI0
aI0
aI1
aI1
aI1
aI1
aa(lp1807
I0
aI0
aI0
aI0
aI1
aI1
aI1
aI1
aa(lp1808
I0
aI0
aI0
aI0
aI1
aI1
aI1
aI1
aa(lp1809
I0
aI0
aI0
aI0
aI1
aI1
aI1
aI1
aa(lp1810
I1
aI1
aI1
aI1
aI0
aI0
aI0
aI0
aa(lp1811
I1
aI1
aI1
aI1
aI0
aI0
aI0
aI0
aa(lp1812
I1
aI1
aI1
aI1
aI0
aI0
aI0
aI0
aa(lp1813
I1
aI1
aI1
aI1
aI0
aI0
aI0
aI0
aa(lp1814
I0
aI0
aI0
aI0
aI0
aI0
aI0
aI0
aa(lp1815
I0
aI0
aI0
aI0
aI0
aI0
aI0
aI0
aa(lp1816
I0
aI0
aI0
aI0
aI0
aI0
aI0
aI0
aa(lp1817
I0
aI0
aI0
aI0
aI0
aI0
aI0
aI0
aaa(lp1818
(lp1819
I1
aI1
aI1
aI1
aI1
aI1
aI1
aI1
aa(lp1820
I1
aI1
aI1
aI1
aI1
aI1
aI1
aI1
aa(lp1821
I1
aI1
aI1
aI1
aI1
aI1
aI1
aI1
aa(lp1822
I1
aI1
aI1
aI1
aI1
aI1
aI1
aI1
aa(lp1823
I1
aI1
aI1
aI1
aI0
aI0
aI0
aI0
aa(lp1824
I1
aI1
aI1
aI1
aI0
aI0
aI0
aI0
aa(lp1825
I1
aI1
aI1
aI1
aI0
aI0
aI0
aI0
aa(lp1826
I1
aI1
aI1
aI1
aI0
aI0
aI0
aI0
aa(lp1827
I0
aI0
aI0
aI0
aI0
aI0
aI0
aI0
aa(lp1828
I0
aI0
aI0
aI0
aI0
aI0
aI0
aI0
aa(lp1829
I0
aI0
aI0
aI0
aI0
aI0
aI0
aI0
aa(lp1830
I0
aI0
aI0
aI0
aI0
aI0
aI0
aI0
aaa(lp1831
(lp1832
I0
aI0
aI0
aI0
aI1
aI1
aI1
aI1
aa(lp1833
I0
aI0
aI0
aI0
aI1
aI1
aI1
aI1
aa(lp1834
I0
aI0
aI0
aI0
aI1
aI1
aI1
aI1
aa(lp1835
I0
aI0
aI0
aI0
aI1
aI1
aI1
aI1
aa(lp1836
I0
aI0
aI0
aI0
aI0
aI0
aI0
aI0
aa(lp1837
I0
aI0
aI0
aI0
aI0
aI0
aI0
aI0
aa(lp1838
I0
aI0
aI0
aI0
aI0
aI0
aI0
aI0
aa(lp1839
I0
aI0
aI0
aI0
aI0
aI0
aI0
aI0
aa(lp1840
I1
aI1
aI1
aI1
aI0
aI0
aI0
aI0
aa(lp1841
I1
aI1
aI1
aI1
aI0
aI0
aI0
aI0
aa(lp1842
I1
aI1
aI1
aI1
aI0
aI0
aI0
aI0
aa(lp1843
I1
aI1
aI1
aI1
aI0
aI0
aI0
aI0
aaa(lp1844
(lp1845
I1
aI1
aI1
aI1
aI1
aI1
aI1
aI1
aa(lp1846
I1
aI1
aI1
aI1
aI1
aI1
aI1
aI1
aa(lp1847
I1
aI1
aI1
aI1
aI1
aI1
aI1
aI1
aa(lp1848
I1
aI1
aI1
aI1
aI1
aI1
aI1
aI1
aa(lp1849
I0
aI0
aI0
aI0
aI0
aI0
aI0
aI0
aa(lp1850
I0
aI0
aI0
aI0
aI0
aI0
aI0
aI0
aa(lp1851
I0
aI0
aI0
aI0
aI0
aI0
aI0
aI0
aa(lp1852
I0
aI0
aI0
aI0
aI0
aI0
aI0
aI0
aa(lp1853
I1
aI1
aI1
aI1
aI0
aI0
aI0
aI0
aa(lp1854
I1
aI1
aI1
aI1
aI0
aI0
aI0
aI0
aa(lp1855
I1
aI1
aI1
aI1
aI0
aI0
aI0
aI0
aa(lp1856
I1
aI1
aI1
aI1
aI0
aI0
aI0
aI0
aaa(lp1857
(lp1858
I0
aI0
aI0
aI0
aI1
aI1
aI1
aI1
aa(lp1859
I0
aI0
aI0
aI0
aI1
aI1
aI1
aI1
aa(lp1860
I0
aI0
aI0
aI0
aI1
aI1
aI1
aI1
aa(lp1861
I0
aI0
aI0
aI0
aI1
aI1
aI1
aI1
aa(lp1862
I1
aI1
aI1
aI1
aI0
aI0
aI0
aI0
aa(lp1863
I1
aI1
aI1
aI1
aI0
aI0
aI0
aI0
aa(lp1864
I1
aI1
aI1
aI1
aI0
aI0
aI0
aI0
aa(lp1865
I1
aI1
aI1
aI1
aI0
aI0
aI0
aI0
aa(lp1866
I1
aI1
aI1
aI1
aI0
aI0
aI0
aI0
aa(lp1867
I1
aI1
aI1
aI1
aI0
aI0
aI0
aI0
aa(lp1868
I1
aI1
aI1
aI1
aI0
aI0
aI0
aI0
aa(lp1869
I1
aI1
aI1
aI1
aI0
aI0
aI0
aI0
aaa(lp1870
(lp1871
I1
aI1
aI1
aI1
aI1
aI1
aI1
aI1
aa(lp1872
I1
aI1
aI1
aI1
aI1
aI1
aI1
aI1
aa(lp1873
I1
aI1
aI1
aI1
aI1
aI1
aI1
aI1
aa(lp1874
I1
aI1
aI1
aI1
aI1
aI1
aI1
aI1
aa(lp1875
I1
aI1
aI1
aI1
aI0
aI0
aI0
aI0
aa(lp1876
I1
aI1
aI1
aI1
aI0
aI0
aI0
aI0
aa(lp1877
I1
aI1
aI1
aI1
aI0
aI0
aI0
aI0
aa(lp1878
I1
aI1
aI1
aI1
aI0
aI0
aI0
aI0
aa(lp1879
I1
aI1
aI1
aI1
aI0
aI0
aI0
aI0
aa(lp1880
I1
aI1
aI1
aI1
aI0
aI0
aI0
aI0
aa(lp1881
I1
aI1
aI1
aI1
aI0
aI0
aI0
aI0
aa(lp1882
I1
aI1
aI1
aI1
aI0
aI0
aI0
aI0
aaa(lp1883
(lp1884
I0
aI0
aI0
aI0
aI0
aI0
aI0
aI0
aa(lp1885
I0
aI0
aI0
aI0
aI0
aI0
aI0
aI0
aa(lp1886
I0
aI0
aI0
aI0
aI0
aI0
aI0
aI0
aa(lp1887
I0
aI0
aI0
aI0
aI0
aI0
aI0
aI0
aa(lp1888
I0
aI0
aI0
aI0
aI1
aI1
aI1
aI1
aa(lp1889
I0
aI0
aI0
aI0
aI1
aI1
aI1
aI1
aa(lp1890
I0
aI0
aI0
aI0
aI1
aI1
aI1
aI1
aa(lp1891
I0
aI0
aI0
aI0
aI1
aI1
aI1
aI1
aa(lp1892
I0
aI0
aI0
aI0
aI0
aI0
aI0
aI0
aa(lp1893
I0
aI0
aI0
aI0
aI0
aI0
aI0
aI0
aa(lp1894
I0
aI0
aI0
aI0
aI0
aI0
aI0
aI0
aa(lp1895
I0
aI0
aI0
aI0
aI0
aI0
aI0
aI0
aaa(lp1896
(lp1897
I1
aI1
aI1
aI1
aI0
aI0
aI0
aI0
aa(lp1898
I1
aI1
aI1
aI1
aI0
aI0
aI0
aI0
aa(lp1899
I1
aI1
aI1
aI1
aI0
aI0
aI0
aI0
aa(lp1900
I1
aI1
aI1
aI1
aI0
aI0
aI0
aI0
aa(lp1901
I0
aI0
aI0
aI0
aI1
aI1
aI1
aI1
aa(lp1902
I0
aI0
aI0
aI0
aI1
aI1
aI1
aI1
aa(lp1903
I0
aI0
aI0
aI0
aI1
aI1
aI1
aI1
aa(lp1904
I0
aI0
aI0
aI0
aI1
aI1
aI1
aI1
aa(lp1905
I0
aI0
aI0
aI0
aI0
aI0
aI0
aI0
aa(lp1906
I0
aI0
aI0
aI0
aI0
aI0
aI0
aI0
aa(lp1907
I0
aI0
aI0
aI0
aI0
aI0
aI0
aI0
aa(lp1908
I0
aI0
aI0
aI0
aI0
aI0
aI0
aI0
aaa(lp1909
(lp1910
I0
aI0
aI0
aI0
aI0
aI0
aI0
aI0
aa(lp1911
I0
aI0
aI0
aI0
aI0
aI0
aI0
aI0
aa(lp1912
I0
aI0
aI0
aI0
aI0
aI0
aI0
aI0
aa(lp1913
I0
aI0
aI0
aI0
aI0
aI0
aI0
aI0
aa(lp1914
I1
aI1
aI1
aI1
aI1
aI1
aI1
aI1
aa(lp1915
I1
aI1
aI1
aI1
aI1
aI1
aI1
aI1
aa(lp1916
I1
aI1
aI1
aI1
aI1
aI1
aI1
aI1
aa(lp1917
I1
aI1
aI1
aI1
aI1
aI1
aI1
aI1
aa(lp1918
I0
aI0
aI0
aI0
aI0
aI0
aI0
aI0
aa(lp1919
I0
aI0
aI0
aI0
aI0
aI0
aI0
aI0
aa(lp1920
I0
aI0
aI0
aI0
aI0
aI0
aI0
aI0
aa(lp1921
I0
aI0
aI0
aI0
aI0
aI0
aI0
aI0
aaa(lp1922
(lp1923
I1
aI1
aI1
aI1
aI0
aI0
aI0
aI0
aa(lp1924
I1
aI1
aI1
aI1
aI0
aI0
aI0
aI0
aa(lp1925
I1
aI1
aI1
aI1
aI0
aI0
aI0
aI0
aa(lp1926
I1
aI1
aI1
aI1
aI0
aI0
aI0
aI0
aa(lp1927
I1
aI1
aI1
aI1
aI1
aI1
aI1
aI1
aa(lp1928
I1
aI1
aI1
aI1
aI1
aI1
aI1
aI1
aa(lp1929
I1
aI1
aI1
aI1
aI1
aI1
aI1
aI1
aa(lp1930
I1
aI1
aI1
aI1
aI1
aI1
aI1
aI1
aa(lp1931
I0
aI0
aI0
aI0
aI0
aI0
aI0
aI0
aa(lp1932
I0
aI0
aI0
aI0
aI0
aI0
aI0
aI0
aa(lp1933
I0
aI0
aI0
aI0
aI0
aI0
aI0
aI0
aa(lp1934
I0
aI0
aI0
aI0
aI0
aI0
aI0
aI0
aaa(lp1935
(lp1936
I0
aI0
aI0
aI0
aI0
aI0
aI0
aI0
aa(lp1937
I0
aI0
aI0
aI0
aI0
aI0
aI0
aI0
aa(lp1938
I0
aI0
aI0
aI0
aI0
aI0
aI0
aI0
aa(lp1939
I0
aI0
aI0
aI0
aI0
aI0
aI0
aI0
aa(lp1940
I0
aI0
aI0
aI0
aI1
aI1
aI1
aI1
aa(lp1941
I0
aI0
aI0
aI0
aI1
aI1
aI1
aI1
aa(lp1942
I0
aI0
aI0
aI0
aI1
aI1
aI1
aI1
aa(lp1943
I0
aI0
aI0
aI0
aI1
aI1
aI1
aI1
aa(lp1944
I1
aI1
aI1
aI1
aI0
aI0
aI0
aI0
aa(lp1945
I1
aI1
aI1
aI1
aI0
aI0
aI0
aI0
aa(lp1946
I1
aI1
aI1
aI1
aI0
aI0
aI0
aI0
aa(lp1947
I1
aI1
aI1
aI1
aI0
aI0
aI0
aI0
aaa(lp1948
(lp1949
I1
aI1
aI1
aI1
aI0
aI0
aI0
aI0
aa(lp1950
I1
aI1
aI1
aI1
aI0
aI0
aI0
aI0
aa(lp1951
I1
aI1
aI1
aI1
aI0
aI0
aI0
aI0
aa(lp1952
I1
aI1
aI1
aI1
aI0
aI0
aI0
aI0
aa(lp1953
I0
aI0
aI0
aI0
aI1
aI1
aI1
aI1
aa(lp1954
I0
aI0
aI0
aI0
aI1
aI1
aI1
aI1
aa(lp1955
I0
aI0
aI0
aI0
aI1
aI1
aI1
aI1
aa(lp1956
I0
aI0
aI0
aI0
aI1
aI1
aI1
aI1
aa(lp1957
I1
aI1
aI1
aI1
aI0
aI0
aI0
aI0
aa(lp1958
I1
aI1
aI1
aI1
aI0
aI0
aI0
aI0
aa(lp1959
I1
aI1
aI1
aI1
aI0
aI0
aI0
aI0
aa(lp1960
I1
aI1
aI1
aI1
aI0
aI0
aI0
aI0
aaa(lp1961
(lp1962
I0
aI0
aI0
aI0
aI0
aI0
aI0
aI0
aa(lp1963
I0
aI0
aI0
aI0
aI0
aI0
aI0
aI0
aa(lp1964
I0
aI0
aI0
aI0
aI0
aI0
aI0
aI0
aa(lp1965
I0
aI0
aI0
aI0
aI0
aI0
aI0
aI0
aa(lp1966
I1
aI1
aI1
aI1
aI1
aI1
aI1
aI1
aa(lp1967
I1
aI1
aI1
aI1
aI1
aI1
aI1
aI1
aa(lp1968
I1
aI1
aI1
aI1
aI1
aI1
aI1
aI1
aa(lp1969
I1
aI1
aI1
aI1
aI1
aI1
aI1
aI1
aa(lp1970
I1
aI1
aI1
aI1
aI0
aI0
aI0
aI0
aa(lp1971
I1
aI1
aI1
aI1
aI0
aI0
aI0
aI0
aa(lp1972
I1
aI1
aI1
aI1
aI0
aI0
aI0
aI0
aa(lp1973
I1
aI1
aI1
aI1
aI0
aI0
aI0
aI0
aaa(lp1974
(lp1975
I1
aI1
aI1
aI1
aI0
aI0
aI0
aI0
aa(lp1976
I1
aI1
aI1
aI1
aI0
aI0
aI0
aI0
aa(lp1977
I1
aI1
aI1
aI1
aI0
aI0
aI0
aI0
aa(lp1978
I1
aI1
aI1
aI1
aI0
aI0
aI0
aI0
aa(lp1979
I1
aI1
aI1
aI1
aI1
aI1
aI1
aI1
aa(lp1980
I1
aI1
aI1
aI1
aI1
aI1
aI1
aI1
aa(lp1981
I1
aI1
aI1
aI1
aI1
aI1
aI1
aI1
aa(lp1982
I1
aI1
aI1
aI1
aI1
aI1
aI1
aI1
aa(lp1983
I1
aI1
aI1
aI1
aI0
aI0
aI0
aI0
aa(lp1984
I1
aI1
aI1
aI1
aI0
aI0
aI0
aI0
aa(lp1985
I1
aI1
aI1
aI1
aI0
aI0
aI0
aI0
aa(lp1986
I1
aI1
aI1
aI1
aI0
aI0
aI0
aI0
aaa(lp1987
(lp1988
I0
aI0
aI0
aI0
aI1
aI1
aI1
aI1
aa(lp1989
I0
aI0
aI0
aI0
aI1
aI1
aI1
aI1
aa(lp1990
I0
aI0
aI0
aI0
aI1
aI1
aI1
aI1
aa(lp1991
I0
aI0
aI0
aI0
aI1
aI1
aI1
aI1
aa(lp1992
I0
aI0
aI0
aI0
aI1
aI1
aI1
aI1
aa(lp1993
I0
aI0
aI0
aI0
aI1
aI1
aI1
aI1
aa(lp1994
I0
aI0
aI0
aI0
aI1
aI1
aI1
aI1
aa(lp1995
I0
aI0
aI0
aI0
aI1
aI1
aI1
aI1
aa(lp1996
I0
aI0
aI0
aI0
aI0
aI0
aI0
aI0
aa(lp1997
I0
aI0
aI0
aI0
aI0
aI0
aI0
aI0
aa(lp1998
I0
aI0
aI0
aI0
aI0
aI0
aI0
aI0
aa(lp1999
I0
aI0
aI0
aI0
aI0
aI0
aI0
aI0
aaa(lp2000
(lp2001
I1
aI1
aI1
aI1
aI1
aI1
aI1
aI1
aa(lp2002
I1
aI1
aI1
aI1
aI1
aI1
aI1
aI1
aa(lp2003
I1
aI1
aI1
aI1
aI1
aI1
aI1
aI1
aa(lp2004
I1
aI1
aI1
aI1
aI1
aI1
aI1
aI1
aa(lp2005
I0
aI0
aI0
aI0
aI1
aI1
aI1
aI1
aa(lp2006
I0
aI0
aI0
aI0
aI1
aI1
aI1
aI1
aa(lp2007
I0
aI0
aI0
aI0
aI1
aI1
aI1
aI1
aa(lp2008
I0
aI0
aI0
aI0
aI1
aI1
aI1
aI1
aa(lp2009
I0
aI0
aI0
aI0
aI0
aI0
aI0
aI0
aa(lp2010
I0
aI0
aI0
aI0
aI0
aI0
aI0
aI0
aa(lp2011
I0
aI0
aI0
aI0
aI0
aI0
aI0
aI0
aa(lp2012
I0
aI0
aI0
aI0
aI0
aI0
aI0
aI0
aaa(lp2013
(lp2014
I0
aI0
aI0
aI0
aI1
aI1
aI1
aI1
aa(lp2015
I0
aI0
aI0
aI0
aI1
aI1
aI1
aI1
aa(lp2016
I0
aI0
aI0
aI0
aI1
aI1
aI1
aI1
aa(lp2017
I0
aI0
aI0
aI0
aI1
aI1
aI1
aI1
aa(lp2018
I1
aI1
aI1
aI1
aI1
aI1
aI1
aI1
aa(lp2019
I1
aI1
aI1
aI1
aI1
aI1
aI1
aI1
aa(lp2020
I1
aI1
aI1
aI1
aI1
aI1
aI1
aI1
aa(lp2021
I1
aI1
aI1
aI1
aI1
aI1
aI1
aI1
aa(lp2022
I0
aI0
aI0
aI0
aI0
aI0
aI0
aI0
aa(lp2023
I0
aI0
aI0
aI0
aI0
aI0
aI0
aI0
aa(lp2024
I0
aI0
aI0
aI0
aI0
aI0
aI0
aI0
aa(lp2025
I0
aI0
aI0
aI0
aI0
aI0
aI0
aI0
aaa(lp2026
(lp2027
I1
aI1
aI1
aI1
aI1
aI1
aI1
aI1
aa(lp2028
I1
aI1
aI1
aI1
aI1
aI1
aI1
aI1
aa(lp2029
I1
aI1
aI1
aI1
aI1
aI1
aI1
aI1
aa(lp2030
I1
aI1
aI1
aI1
aI1
aI1
aI1
aI1
aa(lp2031
I1
aI1
aI1
aI1
aI1
aI1
aI1
aI1
aa(lp2032
I1
aI1
aI1
aI1
aI1
aI1
aI1
aI1
aa(lp2033
I1
aI1
aI1
aI1
aI1
aI1
aI1
aI1
aa(lp2034
I1
aI1
aI1
aI1
aI1
aI1
aI1
aI1
aa(lp2035
I0
aI0
aI0
aI0
aI0
aI0
aI0
aI0
aa(lp2036
I0
aI0
aI0
aI0
aI0
aI0
aI0
aI0
aa(lp2037
I0
aI0
aI0
aI0
aI0
aI0
aI0
aI0
aa(lp2038
I0
aI0
aI0
aI0
aI0
aI0
aI0
aI0
aaa(lp2039
(lp2040
I0
aI0
aI0
aI0
aI1
aI1
aI1
aI1
aa(lp2041
I0
aI0
aI0
aI0
aI1
aI1
aI1
aI1
aa(lp2042
I0
aI0
aI0
aI0
aI1
aI1
aI1
aI1
aa(lp2043
I0
aI0
aI0
aI0
aI1
aI1
aI1
aI1
aa(lp2044
I0
aI0
aI0
aI0
aI1
aI1
aI1
aI1
aa(lp2045
I0
aI0
aI0
aI0
aI1
aI1
aI1
aI1
aa(lp2046
I0
aI0
aI0
aI0
aI1
aI1
aI1
aI1
aa(lp2047
I0
aI0
aI0
aI0
aI1
aI1
aI1
aI1
aa(lp2048
I1
aI1
aI1
aI1
aI0
aI0
aI0
aI0
aa(lp2049
I1
aI1
aI1
aI1
aI0
aI0
aI0
aI0
aa(lp2050
I1
aI1
aI1
aI1
aI0
aI0
aI0
aI0
aa(lp2051
I1
aI1
aI1
aI1
aI0
aI0
aI0
aI0
aaa(lp2052
(lp2053
I1
aI1
aI1
aI1
aI1
aI1
aI1
aI1
aa(lp2054
I1
aI1
aI1
aI1
aI1
aI1
aI1
aI1
aa(lp2055
I1
aI1
aI1
aI1
aI1
aI1
aI1
aI1
aa(lp2056
I1
aI1
aI1
aI1
aI1
aI1
aI1
aI1
aa(lp2057
I0
aI0
aI0
aI0
aI1
aI1
aI1
aI1
aa(lp2058
I0
aI0
aI0
aI0
aI1
aI1
aI1
aI1
aa(lp2059
I0
aI0
aI0
aI0
aI1
aI1
aI1
aI1
aa(lp2060
I0
aI0
aI0
aI0
aI1
aI1
aI1
aI1
aa(lp2061
I1
aI1
aI1
aI1
aI0
aI0
aI0
aI0
aa(lp2062
I1
aI1
aI1
aI1
aI0
aI0
aI0
aI0
aa(lp2063
I1
aI1
aI1
aI1
aI0
aI0
aI0
aI0
aa(lp2064
I1
aI1
aI1
aI1
aI0
aI0
aI0
aI0
aaa(lp2065
(lp2066
I0
aI0
aI0
aI0
aI1
aI1
aI1
aI1
aa(lp2067
I0
aI0
aI0
aI0
aI1
aI1
aI1
aI1
aa(lp2068
I0
aI0
aI0
aI0
aI1
aI1
aI1
aI1
aa(lp2069
I1
aI1
aI1
aI1
aI1
aI1
aI1
aI1
aa(lp2070
I1
aI1
aI1
aI1
aI1
aI1
aI1
aI1
aa(lp2071
I1
aI1
aI1
aI1
aI1
aI1
aI1
aI1
aa(lp2072
I1
aI1
aI1
aI1
aI1
aI1
aI1
aI1
aa(lp2073
I1
aI1
aI1
aI1
aI1
aI1
aI1
aI1
aa(lp2074
I1
aI1
aI1
aI1
aI0
aI0
aI0
aI0
aa(lp2075
I1
aI1
aI1
aI1
aI0
aI0
aI0
aI0
aa(lp2076
I1
aI1
aI1
aI1
aI0
aI0
aI0
aI0
aa(lp2077
I1
aI1
aI1
aI1
aI0
aI0
aI0
aI0
aaa(lp2078
(lp2079
I1
aI1
aI1
aI1
aI1
aI1
aI1
aI1
aa(lp2080
I1
aI1
aI1
aI1
aI1
aI1
aI1
aI1
aa(lp2081
I1
aI1
aI1
aI1
aI1
aI1
aI1
aI1
aa(lp2082
I1
aI1
aI1
aI1
aI1
aI1
aI1
aI1
aa(lp2083
I1
aI1
aI1
aI1
aI1
aI1
aI1
aI1
aa(lp2084
I1
aI1
aI1
aI1
aI1
aI1
aI1
aI1
aa(lp2085
I1
aI1
aI1
aI1
aI1
aI1
aI1
aI1
aa(lp2086
I1
aI1
aI1
aI1
aI1
aI1
aI1
aI1
aa(lp2087
I1
aI1
aI1
aI1
aI0
aI0
aI0
aI0
aa(lp2088
I1
aI1
aI1
aI1
aI0
aI0
aI0
aI0
aa(lp2089
I1
aI1
aI1
aI1
aI0
aI0
aI0
aI0
aa(lp2090
I1
aI1
aI1
aI1
aI0
aI0
aI0
aI0
aaa(lp2091
(lp2092
I0
aI0
aI0
aI0
aI0
aI0
aI0
aI0
aa(lp2093
I0
aI0
aI0
aI0
aI0
aI0
aI0
aI0
aa(lp2094
I0
aI0
aI0
aI0
aI0
aI0
aI0
aI0
aa(lp2095
I0
aI0
aI0
aI0
aI0
aI0
aI0
aI0
aa(lp2096
I0
aI0
aI0
aI0
aI0
aI0
aI0
aI0
aa(lp2097
I0
aI0
aI0
aI0
aI0
aI0
aI0
aI0
aa(lp2098
I0
aI0
aI0
aI0
aI0
aI0
aI0
aI0
aa(lp2099
I0
aI0
aI0
aI0
aI0
aI0
aI0
aI0
aa(lp2100
I0
aI0
aI0
aI0
aI1
aI1
aI1
aI1
aa(lp2101
I0
aI0
aI0
aI0
aI1
aI1
aI1
aI1
aa(lp2102
I0
aI0
aI0
aI0
aI1
aI1
aI1
aI1
aa(lp2103
I0
aI0
aI0
aI0
aI1
aI1
aI1
aI1
aaa(lp2104
(lp2105
I1
aI1
aI1
aI1
aI0
aI0
aI0
aI0
aa(lp2106
I1
aI1
aI1
aI1
aI0
aI0
aI0
aI0
aa(lp2107
I1
aI1
aI1
aI1
aI0
aI0
aI0
aI0
aa(lp2108
I1
aI1
aI1
aI1
aI0
aI0
aI0
aI0
aa(lp2109
I0
aI0
aI0
aI0
aI0
aI0
aI0
aI0
aa(lp2110
I0
aI0
aI0
aI0
aI0
aI0
aI0
aI0
aa(lp2111
I0
aI0
aI0
aI0
aI0
aI0
aI0
aI0
aa(lp2112
I0
aI0
aI0
aI0
aI0
aI0
aI0
aI0
aa(lp2113
I0
aI0
aI0
aI0
aI1
aI1
aI1
aI1
aa(lp2114
I0
aI0
aI0
aI0
aI1
aI1
aI1
aI1
aa(lp2115
I0
aI0
aI0
aI0
aI1
aI1
aI1
aI1
aa(lp2116
I0
aI0
aI0
aI0
aI1
aI1
aI1
aI1
aaa(lp2117
(lp2118
I0
aI0
aI0
aI0
aI0
aI0
aI0
aI0
aa(lp2119
I0
aI0
aI0
aI0
aI0
aI0
aI0
aI0
aa(lp2120
I0
aI0
aI0
aI0
aI0
aI0
aI0
aI0
aa(lp2121
I0
aI0
aI0
aI0
aI0
aI0
aI0
aI0
aa(lp2122
I1
aI1
aI1
aI1
aI0
aI0
aI0
aI0
aa(lp2123
I1
aI1
aI1
aI1
aI0
aI0
aI0
aI0
aa(lp2124
I1
aI1
aI1
aI1
aI0
aI0
aI0
aI0
aa(lp2125
I1
aI1
aI1
aI1
aI0
aI0
aI0
aI0
aa(lp2126
I0
aI0
aI0
aI0
aI1
aI1
aI1
aI1
aa(lp2127
I0
aI0
aI0
aI0
aI1
aI1
aI1
aI1
aa(lp2128
I0
aI0
aI0
aI0
aI1
aI1
aI1
aI1
aa(lp2129
I0
aI0
aI0
aI0
aI1
aI1
aI1
aI1
aaa(lp2130
(lp2131
I1
aI1
aI1
aI1
aI0
aI0
aI0
aI0
aa(lp2132
I1
aI1
aI1
aI1
aI0
aI0
aI0
aI0
aa(lp2133
I1
aI1
aI1
aI1
aI0
aI0
aI0
aI0
aa(lp2134
I1
aI1
aI1
aI1
aI0
aI0
aI0
aI0
aa(lp2135
I1
aI1
aI1
aI1
aI0
aI0
aI0
aI0
aa(lp2136
I1
aI1
aI1
aI1
aI0
aI0
aI0
aI0
aa(lp2137
I1
aI1
aI1
aI1
aI0
aI0
aI0
aI0
aa(lp2138
I1
aI1
aI1
aI1
aI0
aI0
aI0
aI0
aa(lp2139
I0
aI0
aI0
aI0
aI1
aI1
aI1
aI1
aa(lp2140
I0
aI0
aI0
aI0
aI1
aI1
aI1
aI1
aa(lp2141
I0
aI0
aI0
aI0
aI1
aI1
aI1
aI1
aa(lp2142
I0
aI0
aI0
aI0
aI1
aI1
aI1
aI1
aaa(lp2143
(lp2144
I0
aI0
aI0
aI0
aI0
aI0
aI0
aI0
aa(lp2145
I0
aI0
aI0
aI0
aI0
aI0
aI0
aI0
aa(lp2146
I0
aI0
aI0
aI0
aI0
aI0
aI0
aI0
aa(lp2147
I0
aI0
aI0
aI0
aI0
aI0
aI0
aI0
aa(lp2148
I0
aI0
aI0
aI0
aI0
aI0
aI0
aI0
aa(lp2149
I0
aI0
aI0
aI0
aI0
aI0
aI0
aI0
aa(lp2150
I0
aI0
aI0
aI0
aI0
aI0
aI0
aI0
aa(lp2151
I0
aI0
aI0
aI0
aI0
aI0
aI0
aI0
aa(lp2152
I1
aI1
aI1
aI1
aI1
aI1
aI1
aI1
aa(lp2153
I1
aI1
aI1
aI1
aI1
aI1
aI1
aI1
aa(lp2154
I1
aI1
aI1
aI1
aI1
aI1
aI1
aI1
aa(lp2155
I1
aI1
aI1
aI1
aI1
aI1
aI1
aI1
aaa(lp2156
(lp2157
I1
aI1
aI1
aI1
aI0
aI0
aI0
aI0
aa(lp2158
I1
aI1
aI1
aI1
aI0
aI0
aI0
aI0
aa(lp2159
I1
aI1
aI1
aI1
aI0
aI0
aI0
aI0
aa(lp2160
I1
aI1
aI1
aI1
aI0
aI0
aI0
aI0
aa(lp2161
I0
aI0
aI0
aI0
aI0
aI0
aI0
aI0
aa(lp2162
I0
aI0
aI0
aI0
aI0
aI0
aI0
aI0
aa(lp2163
I0
aI0
aI0
aI0
aI0
aI0
aI0
aI0
aa(lp2164
I0
aI0
aI0
aI0
aI0
aI0
aI0
aI0
aa(lp2165
I1
aI1
aI1
aI1
aI1
aI1
aI1
aI1
aa(lp2166
I1
aI1
aI1
aI1
aI1
aI1
aI1
aI1
aa(lp2167
I1
aI1
aI1
aI1
aI1
aI1
aI1
aI1
aa(lp2168
I1
aI1
aI1
aI1
aI1
aI1
aI1
aI1
aaa(lp2169
(lp2170
I0
aI0
aI0
aI0
aI0
aI0
aI0
aI0
aa(lp2171
I0
aI0
aI0
aI0
aI0
aI0
aI0
aI0
aa(lp2172
I0
aI0
aI0
aI0
aI0
aI0
aI0
aI0
aa(lp2173
I0
aI0
aI0
aI0
aI0
aI0
aI0
aI0
aa(lp2174
I1
aI1
aI1
aI1
aI0
aI0
aI0
aI0
aa(lp2175
I1
aI1
aI1
aI1
aI0
aI0
aI0
aI0
aa(lp2176
I1
aI1
aI1
aI1
aI0
aI0
aI0
aI0
aa(lp2177
I1
aI1
aI1
aI1
aI0
aI0
aI0
aI0
aa(lp2178
I1
aI1
aI1
aI1
aI1
aI1
aI1
aI1
aa(lp2179
I1
aI1
aI1
aI1
aI1
aI1
aI1
aI1
aa(lp2180
I1
aI1
aI1
aI1
aI1
aI1
aI1
aI1
aa(lp2181
I1
aI1
aI1
aI1
aI1
aI1
aI1
aI1
aaa(lp2182
(lp2183
I1
aI1
aI1
aI1
aI0
aI0
aI0
aI0
aa(lp2184
I1
aI1
aI1
aI1
aI0
aI0
aI0
aI0
aa(lp2185
I1
aI1
aI1
aI1
aI0
aI0
aI0
aI0
aa(lp2186
I1
aI1
aI1
aI1
aI0
aI0
aI0
aI0
aa(lp2187
I1
aI1
aI1
aI1
aI0
aI0
aI0
aI0
aa(lp2188
I1
aI1
aI1
aI1
aI0
aI0
aI0
aI0
aa(lp2189
I1
aI1
aI1
aI1
aI0
aI0
aI0
aI0
aa(lp2190
I1
aI1
aI1
aI1
aI0
aI0
aI0
aI0
aa(lp2191
I1
aI1
aI1
aI1
aI1
aI1
aI1
aI1
aa(lp2192
I1
aI1
aI1
aI1
aI1
aI1
aI1
aI1
aa(lp2193
I1
aI1
aI1
aI1
aI1
aI1
aI1
aI1
aa(lp2194
I1
aI1
aI1
aI1
aI1
aI1
aI1
aI1
aaa(lp2195
(lp2196
I0
aI0
aI0
aI0
aI1
aI1
aI1
aI1
aa(lp2197
I0
aI0
aI0
aI0
aI1
aI1
aI1
aI1
aa(lp2198
I0
aI0
aI0
aI0
aI1
aI1
aI1
aI1
aa(lp2199
I0
aI0
aI0
aI0
aI1
aI1
aI1
aI1
aa(lp2200
I0
aI0
aI0
aI0
aI0
aI0
aI0
aI0
aa(lp2201
I0
aI0
aI0
aI0
aI0
aI0
aI0
aI0
aa(lp2202
I0
aI0
aI0
aI0
aI0
aI0
aI0
aI0
aa(lp2203
I0
aI0
aI0
aI0
aI0
aI0
aI0
aI0
aa(lp2204
I0
aI0
aI0
aI0
aI1
aI1
aI1
aI1
aa(lp2205
I0
aI0
aI0
aI0
aI1
aI1
aI1
aI1
aa(lp2206
I0
aI0
aI0
aI0
aI1
aI1
aI1
aI1
aa(lp2207
I0
aI0
aI0
aI0
aI1
aI1
aI1
aI1
aaa(lp2208
(lp2209
I1
aI1
aI1
aI1
aI1
aI1
aI1
aI1
aa(lp2210
I1
aI1
aI1
aI1
aI1
aI1
aI1
aI1
aa(lp2211
I1
aI1
aI1
aI1
aI1
aI1
aI1
aI1
aa(lp2212
I1
aI1
aI1
aI1
aI1
aI1
aI1
aI1
aa(lp2213
I0
aI0
aI0
aI0
aI0
aI0
aI0
aI0
aa(lp2214
I0
aI0
aI0
aI0
aI0
aI0
aI0
aI0
aa(lp2215
I0
aI0
aI0
aI0
aI0
aI0
aI0
aI0
aa(lp2216
I0
aI0
aI0
aI0
aI0
aI0
aI0
aI0
aa(lp2217
I0
aI0
aI0
aI0
aI1
aI1
aI1
aI1
aa(lp2218
I0
aI0
aI0
aI0
aI1
aI1
aI1
aI1
aa(lp2219
I0
aI0
aI0
aI0
aI1
aI1
aI1
aI1
aa(lp2220
I0
aI0
aI0
aI0
aI1
aI1
aI1
aI1
aaa(lp2221
(lp2222
I0
aI0
aI0
aI0
aI1
aI1
aI1
aI1
aa(lp2223
I0
aI0
aI0
aI0
aI1
aI1
aI1
aI1
aa(lp2224
I0
aI0
aI0
aI0
aI1
aI1
aI1
aI1
aa(lp2225
I0
aI0
aI0
aI0
aI1
aI1
aI1
aI1
aa(lp2226
I1
aI1
aI1
aI1
aI0
aI0
aI0
aI0
aa(lp2227
I1
aI1
aI1
aI1
aI0
aI0
aI0
aI0
aa(lp2228
I1
aI1
aI1
aI1
aI0
aI0
aI0
aI0
aa(lp2229
I1
aI1
aI1
aI1
aI0
aI0
aI0
aI0
aa(lp2230
I0
aI0
aI0
aI0
aI1
aI1
aI1
aI1
aa(lp2231
I0
aI0
aI0
aI0
aI1
aI1
aI1
aI1
aa(lp2232
I0
aI0
aI0
aI0
aI1
aI1
aI1
aI1
aa(lp2233
I0
aI0
aI0
aI0
aI1
aI1
aI1
aI1
aaa(lp2234
(lp2235
I1
aI1
aI1
aI1
aI1
aI1
aI1
aI1
aa(lp2236
I1
aI1
aI1
aI1
aI1
aI1
aI1
aI1
aa(lp2237
I1
aI1
aI1
aI1
aI1
aI1
aI1
aI1
aa(lp2238
I1
aI1
aI1
aI1
aI1
aI1
aI1
aI1
aa(lp2239
I1
aI1
aI1
aI1
aI0
aI0
aI0
aI0
aa(lp2240
I1
aI1
aI1
aI1
aI0
aI0
aI0
aI0
aa(lp2241
I1
aI1
aI1
aI1
aI0
aI0
aI0
aI0
aa(lp2242
I1
aI1
aI1
aI1
aI0
aI0
aI0
aI0
aa(lp2243
I0
aI0
aI0
aI0
aI1
aI1
aI1
aI1
aa(lp2244
I0
aI0
aI0
aI0
aI1
aI1
aI1
aI1
aa(lp2245
I0
aI0
aI0
aI0
aI1
aI1
aI1
aI1
aa(lp2246
I0
aI0
aI0
aI0
aI1
aI1
aI1
aI1
aaa(lp2247
(lp2248
I0
aI0
aI0
aI0
aI1
aI1
aI1
aI1
aa(lp2249
I0
aI0
aI0
aI0
aI1
aI1
aI1
aI1
aa(lp2250
I0
aI0
aI0
aI0
aI1
aI1
aI1
aI1
aa(lp2251
I0
aI0
aI0
aI0
aI1
aI1
aI1
aI1
aa(lp2252
I0
aI0
aI0
aI0
aI0
aI0
aI0
aI0
aa(lp2253
I0
aI0
aI0
aI0
aI0
aI0
aI0
aI0
aa(lp2254
I0
aI0
aI0
aI0
aI0
aI0
aI0
aI0
aa(lp2255
I0
aI0
aI0
aI0
aI0
aI0
aI0
aI0
aa(lp2256
I1
aI1
aI1
aI1
aI1
aI1
aI1
aI1
aa(lp2257
I1
aI1
aI1
aI1
aI1
aI1
aI1
aI1
aa(lp2258
I1
aI1
aI1
aI1
aI1
aI1
aI1
aI1
aa(lp2259
I1
aI1
aI1
aI1
aI1
aI1
aI1
aI1
aaa(lp2260
(lp2261
I1
aI1
aI1
aI1
aI1
aI1
aI1
aI1
aa(lp2262
I1
aI1
aI1
aI1
aI1
aI1
aI1
aI1
aa(lp2263
I1
aI1
aI1
aI1
aI1
aI1
aI1
aI1
aa(lp2264
I1
aI1
aI1
aI1
aI1
aI1
aI1
aI1
aa(lp2265
I0
aI0
aI0
aI0
aI0
aI0
aI0
aI0
aa(lp2266
I0
aI0
aI0
aI0
aI0
aI0
aI0
aI0
aa(lp2267
I0
aI0
aI0
aI0
aI0
aI0
aI0
aI0
aa(lp2268
I0
aI0
aI0
aI0
aI0
aI0
aI0
aI0
aa(lp2269
I1
aI1
aI1
aI1
aI1
aI1
aI1
aI1
aa(lp2270
I1
aI1
aI1
aI1
aI1
aI1
aI1
aI1
aa(lp2271
I1
aI1
aI1
aI1
aI1
aI1
aI1
aI1
aa(lp2272
I1
aI1
aI1
aI1
aI1
aI1
aI1
aI1
aaa(lp2273
(lp2274
I0
aI0
aI0
aI0
aI1
aI1
aI1
aI1
aa(lp2275
I0
aI0
aI0
aI0
aI1
aI1
aI1
aI1
aa(lp2276
I0
aI0
aI0
aI0
aI1
aI1
aI1
aI1
aa(lp2277
I0
aI0
aI0
aI0
aI1
aI1
aI1
aI1
aa(lp2278
I1
aI1
aI1
aI1
aI0
aI0
aI0
aI0
aa(lp2279
I1
aI1
aI1
aI1
aI0
aI0
aI0
aI0
aa(lp2280
I1
aI1
aI1
aI1
aI0
aI0
aI0
aI0
aa(lp2281
I1
aI1
aI1
aI1
aI0
aI0
aI0
aI0
aa(lp2282
I1
aI1
aI1
aI1
aI1
aI1
aI1
aI1
aa(lp2283
I1
aI1
aI1
aI1
aI1
aI1
aI1
aI1
aa(lp2284
I1
aI1
aI1
aI1
aI1
aI1
aI1
aI1
aa(lp2285
I1
aI1
aI1
aI1
aI1
aI1
aI1
aI1
aaa(lp2286
(lp2287
I1
aI1
aI1
aI1
aI1
aI1
aI1
aI1
aa(lp2288
I1
aI1
aI1
aI1
aI1
aI1
aI1
aI1
aa(lp2289
I1
aI1
aI1
aI1
aI1
aI1
aI1
aI1
aa(lp2290
I1
aI1
aI1
aI1
aI1
aI1
aI1
aI1
aa(lp2291
I1
aI1
aI1
aI1
aI0
aI0
aI0
aI0
aa(lp2292
I1
aI1
aI1
aI1
aI0
aI0
aI0
aI0
aa(lp2293
I1
aI1
aI1
aI1
aI0
aI0
aI0
aI0
aa(lp2294
I1
aI1
aI1
aI1
aI0
aI0
aI0
aI0
aa(lp2295
I1
aI1
aI1
aI1
aI1
aI1
aI1
aI1
aa(lp2296
I1
aI1
aI1
aI1
aI1
aI1
aI1
aI1
aa(lp2297
I1
aI1
aI1
aI1
aI1
aI1
aI1
aI1
aa(lp2298
I1
aI1
aI1
aI1
aI1
aI1
aI1
aI1
aaa(lp2299
(lp2300
I0
aI0
aI0
aI0
aI0
aI0
aI0
aI0
aa(lp2301
I0
aI0
aI0
aI0
aI0
aI0
aI0
aI0
aa(lp2302
I0
aI0
aI0
aI0
aI0
aI0
aI0
aI0
aa(lp2303
I0
aI0
aI0
aI0
aI0
aI0
aI0
aI0
aa(lp2304
I0
aI0
aI0
aI0
aI1
aI1
aI1
aI1
aa(lp2305
I0
aI0
aI0
aI0
aI1
aI1
aI1
aI1
aa(lp2306
I0
aI0
aI0
aI0
aI1
aI1
aI1
aI1
aa(lp2307
I0
aI0
aI0
aI0
aI1
aI1
aI1
aI1
aa(lp2308
I0
aI0
aI0
aI0
aI1
aI1
aI1
aI1
aa(lp2309
I0
aI0
aI0
aI0
aI1
aI1
aI1
aI1
aa(lp2310
I0
aI0
aI0
aI0
aI1
aI1
aI1
aI1
aa(lp2311
I0
aI0
aI0
aI0
aI1
aI1
aI1
aI1
aaa(lp2312
(lp2313
I1
aI1
aI1
aI1
aI0
aI0
aI0
aI0
aa(lp2314
I1
aI1
aI1
aI1
aI0
aI0
aI0
aI0
aa(lp2315
I1
aI1
aI1
aI1
aI0
aI0
aI0
aI0
aa(lp2316
I1
aI1
aI1
aI1
aI0
aI0
aI0
aI0
aa(lp2317
I0
aI0
aI0
aI0
aI1
aI1
aI1
aI1
aa(lp2318
I0
aI0
aI0
aI0
aI1
aI1
aI1
aI1
aa(lp2319
I0
aI0
aI0
aI0
aI1
aI1
aI1
aI1
aa(lp2320
I0
aI0
aI0
aI0
aI1
aI1
aI1
aI1
aa(lp2321
I0
aI0
aI0
aI0
aI1
aI1
aI1
aI1
aa(lp2322
I0
aI0
aI0
aI0
aI1
aI1
aI1
aI1
aa(lp2323
I0
aI0
aI0
aI0
aI1
aI1
aI1
aI1
aa(lp2324
I0
aI0
aI0
aI0
aI1
aI1
aI1
aI1
aaa(lp2325
(lp2326
I0
aI0
aI0
aI0
aI0
aI0
aI0
aI0
aa(lp2327
I0
aI0
aI0
aI0
aI0
aI0
aI0
aI0
aa(lp2328
I0
aI0
aI0
aI0
aI0
aI0
aI0
aI0
aa(lp2329
I0
aI0
aI0
aI0
aI0
aI0
aI0
aI0
aa(lp2330
I1
aI1
aI1
aI1
aI1
aI1
aI1
aI1
aa(lp2331
I1
aI1
aI1
aI1
aI1
aI1
aI1
aI1
aa(lp2332
I1
aI1
aI1
aI1
aI1
aI1
aI1
aI1
aa(lp2333
I1
aI1
aI1
aI1
aI1
aI1
aI1
aI1
aa(lp2334
I0
aI0
aI0
aI0
aI1
aI1
aI1
aI1
aa(lp2335
I0
aI0
aI0
aI0
aI1
aI1
aI1
aI1
aa(lp2336
I0
aI0
aI0
aI0
aI1
aI1
aI1
aI1
aa(lp2337
I0
aI0
aI0
aI0
aI1
aI1
aI1
aI1
aaa(lp2338
(lp2339
I1
aI1
aI1
aI1
aI0
aI0
aI0
aI0
aa(lp2340
I1
aI1
aI1
aI1
aI0
aI0
aI0
aI0
aa(lp2341
I1
aI1
aI1
aI1
aI0
aI0
aI0
aI0
aa(lp2342
I1
aI1
aI1
aI1
aI0
aI0
aI0
aI0
aa(lp2343
I1
aI1
aI1
aI1
aI1
aI1
aI1
aI1
aa(lp2344
I1
aI1
aI1
aI1
aI1
aI1
aI1
aI1
aa(lp2345
I1
aI1
aI1
aI1
aI1
aI1
aI1
aI1
aa(lp2346
I1
aI1
aI1
aI1
aI1
aI1
aI1
aI1
aa(lp2347
I0
aI0
aI0
aI0
aI1
aI1
aI1
aI1
aa(lp2348
I0
aI0
aI0
aI0
aI1
aI1
aI1
aI1
aa(lp2349
I0
aI0
aI0
aI0
aI1
aI1
aI1
aI1
aa(lp2350
I0
aI0
aI0
aI0
aI1
aI1
aI1
aI1
aaa(lp2351
(lp2352
I0
aI0
aI0
aI0
aI0
aI0
aI0
aI0
aa(lp2353
I0
aI0
aI0
aI0
aI0
aI0
aI0
aI0
aa(lp2354
I0
aI0
aI0
aI0
aI0
aI0
aI0
aI0
aa(lp2355
I0
aI0
aI0
aI0
aI0
aI0
aI0
aI0
aa(lp2356
I0
aI0
aI0
aI0
aI1
aI1
aI1
aI1
aa(lp2357
I0
aI0
aI0
aI0
aI1
aI1
aI1
aI1
aa(lp2358
I0
aI0
aI0
aI0
aI1
aI1
aI1
aI1
aa(lp2359
I0
aI0
aI0
aI0
aI1
aI1
aI1
aI1
aa(lp2360
I1
aI1
aI1
aI1
aI1
aI1
aI1
aI1
aa(lp2361
I1
aI1
aI1
aI1
aI1
aI1
aI1
aI1
aa(lp2362
I1
aI1
aI1
aI1
aI1
aI1
aI1
aI1
aa(lp2363
I1
aI1
aI1
aI1
aI1
aI1
aI1
aI1
aaa(lp2364
(lp2365
I1
aI1
aI1
aI1
aI0
aI0
aI0
aI0
aa(lp2366
I1
aI1
aI1
aI1
aI0
aI0
aI0
aI0
aa(lp2367
I1
aI1
aI1
aI1
aI0
aI0
aI0
aI0
aa(lp2368
I1
aI1
aI1
aI1
aI0
aI0
aI0
aI0
aa(lp2369
I0
aI0
aI0
aI0
aI1
aI1
aI1
aI1
aa(lp2370
I0
aI0
aI0
aI0
aI1
aI1
aI1
aI1
aa(lp2371
I0
aI0
aI0
aI0
aI1
aI1
aI1
aI1
aa(lp2372
I0
aI0
aI0
aI0
aI1
aI1
aI1
aI1
aa(lp2373
I1
aI1
aI1
aI1
aI1
aI1
aI1
aI1
aa(lp2374
I1
aI1
aI1
aI1
aI1
aI1
aI1
aI1
aa(lp2375
I1
aI1
aI1
aI1
aI1
aI1
aI1
aI1
aa(lp2376
I1
aI1
aI1
aI1
aI1
aI1
aI1
aI1
aaa(lp2377
(lp2378
I0
aI0
aI0
aI0
aI0
aI0
aI0
aI0
aa(lp2379
I0
aI0
aI0
aI0
aI0
aI0
aI0
aI0
aa(lp2380
I0
aI0
aI0
aI0
aI0
aI0
aI0
aI0
aa(lp2381
I0
aI0
aI0
aI0
aI0
aI0
aI0
aI0
aa(lp2382
I1
aI1
aI1
aI1
aI1
aI1
aI1
aI1
aa(lp2383
I1
aI1
aI1
aI1
aI1
aI1
aI1
aI1
aa(lp2384
I1
aI1
aI1
aI1
aI1
aI1
aI1
aI1
aa(lp2385
I1
aI1
aI1
aI1
aI1
aI1
aI1
aI1
aa(lp2386
I1
aI1
aI1
aI1
aI1
aI1
aI1
aI1
aa(lp2387
I1
aI1
aI1
aI1
aI1
aI1
aI1
aI1
aa(lp2388
I1
aI1
aI1
aI1
aI1
aI1
aI1
aI1
aa(lp2389
I1
aI1
aI1
aI1
aI1
aI1
aI1
aI1
aaa(lp2390
(lp2391
I1
aI1
aI1
aI1
aI0
aI0
aI0
aI0
aa(lp2392
I1
aI1
aI1
aI1
aI0
aI0
aI0
aI0
aa(lp2393
I1
aI1
aI1
aI1
aI0
aI0
aI0
aI0
aa(lp2394
I1
aI1
aI1
aI1
aI0
aI0
aI0
aI0
aa(lp2395
I1
aI1
aI1
aI1
aI1
aI1
aI1
aI1
aa(lp2396
I1
aI1
aI1
aI1
aI1
aI1
aI1
aI1
aa(lp2397
I1
aI1
aI1
aI1
aI1
aI1
aI1
aI1
aa(lp2398
I1
aI1
aI1
aI1
aI1
aI1
aI1
aI1
aa(lp2399
I1
aI1
aI1
aI1
aI1
aI1
aI1
aI1
aa(lp2400
I1
aI1
aI1
aI1
aI1
aI1
aI1
aI1
aa(lp2401
I1
aI1
aI1
aI1
aI1
aI1
aI1
aI1
aa(lp2402
I1
aI1
aI1
aI1
aI1
aI1
aI1
aI1
aaa(lp2403
(lp2404
I0
aI0
aI0
aI0
aI1
aI1
aI1
aI1
aa(lp2405
I0
aI0
aI0
aI0
aI1
aI1
aI1
aI1
aa(lp2406
I0
aI0
aI0
aI0
aI1
aI1
aI1
aI1
aa(lp2407
I0
aI0
aI0
aI0
aI1
aI1
aI1
aI1
aa(lp2408
I0
aI0
aI0
aI0
aI1
aI1
aI1
aI1
aa(lp2409
I0
aI0
aI0
aI0
aI1
aI1
aI1
aI1
aa(lp2410
I0
aI0
aI0
aI0
aI1
aI1
aI1
aI1
aa(lp2411
I0
aI0
aI0
aI0
aI1
aI1
aI1
aI1
aa(lp2412
I0
aI0
aI0
aI0
aI1
aI1
aI1
aI1
aa(lp2413
I0
aI0
aI0
aI0
aI1
aI1
aI1
aI1
aa(lp2414
I0
aI0
aI0
aI0
aI1
aI1
aI1
aI1
aa(lp2415
I0
aI0
aI0
aI0
aI1
aI1
aI1
aI1
aaa(lp2416
(lp2417
I1
aI1
aI1
aI1
aI1
aI1
aI1
aI1
aa(lp2418
I1
aI1
aI1
aI1
aI1
aI1
aI1
aI1
aa(lp2419
I1
aI1
aI1
aI1
aI1
aI1
aI1
aI1
aa(lp2420
I1
aI1
aI1
aI1
aI1
aI1
aI1
aI1
aa(lp2421
I0
aI0
aI0
aI0
aI1
aI1
aI1
aI1
aa(lp2422
I0
aI0
aI0
aI0
aI1
aI1
aI1
aI1
aa(lp2423
I0
aI0
aI0
aI0
aI1
aI1
aI1
aI1
aa(lp2424
I0
aI0
aI0
aI0
aI1
aI1
aI1
aI1
aa(lp2425
I0
aI0
aI0
aI0
aI1
aI1
aI1
aI1
aa(lp2426
I0
aI0
aI0
aI0
aI1
aI1
aI1
aI1
aa(lp2427
I0
aI0
aI0
aI0
aI1
aI1
aI1
aI1
aa(lp2428
I0
aI0
aI0
aI0
aI1
aI1
aI1
aI1
aaa(lp2429
(lp2430
I0
aI0
aI0
aI0
aI1
aI1
aI1
aI1
aa(lp2431
I0
aI0
aI0
aI0
aI1
aI1
aI1
aI1
aa(lp2432
I0
aI0
aI0
aI0
aI1
aI1
aI1
aI1
aa(lp2433
I0
aI0
aI0
aI0
aI1
aI1
aI1
aI1
aa(lp2434
I1
aI1
aI1
aI1
aI1
aI1
aI1
aI1
aa(lp2435
I1
aI1
aI1
aI1
aI1
aI1
aI1
aI1
aa(lp2436
I1
aI1
aI1
aI1
aI1
aI1
aI1
aI1
aa(lp2437
I1
aI1
aI1
aI1
aI1
aI1
aI1
aI1
aa(lp2438
I0
aI0
aI0
aI0
aI1
aI1
aI1
aI1
aa(lp2439
I0
aI0
aI0
aI0
aI1
aI1
aI1
aI1
aa(lp2440
I0
aI0
aI0
aI0
aI1
aI1
aI1
aI1
aa(lp2441
I0
aI0
aI0
aI0
aI1
aI1
aI1
aI1
aaa(lp2442
(lp2443
I1
aI1
aI1
aI1
aI1
aI1
aI1
aI1
aa(lp2444
I1
aI1
aI1
aI1
aI1
aI1
aI1
aI1
aa(lp2445
I1
aI1
aI1
aI1
aI1
aI1
aI1
aI1
aa(lp2446
I1
aI1
aI1
aI1
aI1
aI1
aI1
aI1
aa(lp2447
I1
aI1
aI1
aI1
aI1
aI1
aI1
aI1
aa(lp2448
I1
aI1
aI1
aI1
aI1
aI1
aI1
aI1
aa(lp2449
I1
aI1
aI1
aI1
aI1
aI1
aI1
aI1
aa(lp2450
I1
aI1
aI1
aI1
aI1
aI1
aI1
aI1
aa(lp2451
I0
aI0
aI0
aI0
aI1
aI1
aI1
aI1
aa(lp2452
I0
aI0
aI0
aI0
aI1
aI1
aI1
aI1
aa(lp2453
I0
aI0
aI0
aI0
aI1
aI1
aI1
aI1
aa(lp2454
I0
aI0
aI0
aI0
aI1
aI1
aI1
aI1
aaa(lp2455
(lp2456
I0
aI0
aI0
aI0
aI1
aI1
aI1
aI1
aa(lp2457
I0
aI0
aI0
aI0
aI1
aI1
aI1
aI1
aa(lp2458
I0
aI0
aI0
aI0
aI1
aI1
aI1
aI1
aa(lp2459
I0
aI0
aI0
aI0
aI1
aI1
aI1
aI1
aa(lp2460
I0
aI0
aI0
aI0
aI1
aI1
aI1
aI1
aa(lp2461
I0
aI0
aI0
aI0
aI1
aI1
aI1
aI1
aa(lp2462
I0
aI0
aI0
aI0
aI1
aI1
aI1
aI1
aa(lp2463
I0
aI0
aI0
aI0
aI1
aI1
aI1
aI1
aa(lp2464
I1
aI1
aI1
aI1
aI1
aI1
aI1
aI1
aa(lp2465
I1
aI1
aI1
aI1
aI1
aI1
aI1
aI1
aa(lp2466
I1
aI1
aI1
aI1
aI1
aI1
aI1
aI1
aa(lp2467
I1
aI1
aI1
aI1
aI1
aI1
aI1
aI1
aaa(lp2468
(lp2469
I1
aI1
aI1
aI1
aI1
aI1
aI1
aI1
aa(lp2470
I1
aI1
aI1
aI1
aI1
aI1
aI1
aI1
aa(lp2471
I1
aI1
aI1
aI1
aI1
aI1
aI1
aI1
aa(lp2472
I1
aI1
aI1
aI1
aI1
aI1
aI1
aI1
aa(lp2473
I0
aI0
aI0
aI0
aI1
aI1
aI1
aI1
aa(lp2474
I0
aI0
aI0
aI0
aI1
aI1
aI1
aI1
aa(lp2475
I0
aI0
aI0
aI0
aI1
aI1
aI1
aI1
aa(lp2476
I0
aI0
aI0
aI0
aI1
aI1
aI1
aI1
aa(lp2477
I1
aI1
aI1
aI1
aI1
aI1
aI1
aI1
aa(lp2478
I1
aI1
aI1
aI1
aI1
aI1
aI1
aI1
aa(lp2479
I1
aI1
aI1
aI1
aI1
aI1
aI1
aI1
aa(lp2480
I1
aI1
aI1
aI1
aI1
aI1
aI1
aI1
aaa(lp2481
(lp2482
I0
aI0
aI0
aI0
aI1
aI1
aI1
aI1
aa(lp2483
I0
aI0
aI0
aI0
aI1
aI1
aI1
aI1
aa(lp2484
I0
aI0
aI0
aI0
aI1
aI1
aI1
aI1
aa(lp2485
I0
aI0
aI0
aI0
aI1
aI1
aI1
aI1
aa(lp2486
I1
aI1
aI1
aI1
aI1
aI1
aI1
aI1
aa(lp2487
I1
aI1
aI1
aI1
aI1
aI1
aI1
aI1
aa(lp2488
I1
aI1
aI1
aI1
aI1
aI1
aI1
aI1
aa(lp2489
I1
aI1
aI1
aI1
aI1
aI1
aI1
aI1
aa(lp2490
I1
aI1
aI1
aI1
aI1
aI1
aI1
aI1
aa(lp2491
I1
aI1
aI1
aI1
aI1
aI1
aI1
aI1
aa(lp2492
I1
aI1
aI1
aI1
aI1
aI1
aI1
aI1
aa(lp2493
I1
aI1
aI1
aI1
aI1
aI1
aI1
aI1
aaa(lp2494
(lp2495
I1
aI1
aI1
aI1
aI1
aI1
aI1
aI1
aa(lp2496
I1
aI1
aI1
aI1
aI1
aI1
aI1
aI1
aa(lp2497
I1
aI1
aI1
aI1
aI1
aI1
aI1
aI1
aa(lp2498
I1
aI1
aI1
aI1
aI1
aI1
aI1
aI1
aa(lp2499
I1
aI1
aI1
aI1
aI1
aI1
aI1
aI1
aa(lp2500
I1
aI1
aI1
aI1
aI1
aI1
aI1
aI1
aa(lp2501
I1
aI1
aI1
aI1
aI1
aI1
aI1
aI1
aa(lp2502
I1
aI1
aI1
aI1
aI1
aI1
aI1
aI1
aa(lp2503
I1
aI1
aI1
aI1
aI1
aI1
aI1
aI1
aa(lp2504
I1
aI1
aI1
aI1
aI1
aI1
aI1
aI1
aa(lp2505
I1
aI1
aI1
aI1
aI1
aI1
aI1
aI1
aa(lp2506
I1
aI1
aI1
aI1
aI1
aI1
aI1
aI1
aaa(lp2507
(lp2508
I0
aI0
aI0
aI0
aI0
aI0
aI0
aI0
aa(lp2509
I0
aI0
aI0
aI0
aI0
aI0
aI0
aI0
aa(lp2510
I0
aI0
aI0
aI0
aI0
aI0
aI0
aI0
aa(lp2511
I0
aI0
aI0
aI0
aI0
aI0
aI0
aI0
aa(lp2512
I0
aI0
aI0
aI0
aI0
aI0
aI0
aI0
aa(lp2513
I0
aI0
aI0
aI0
aI0
aI0
aI0
aI0
aa(lp2514
I0
aI0
aI0
aI0
aI0
aI0
aI0
aI0
aa(lp2515
I0
aI0
aI0
aI0
aI0
aI0
aI0
aI0
aa(lp2516
I0
aI0
aI0
aI0
aI0
aI0
aI0
aI0
aa(lp2517
I0
aI0
aI0
aI0
aI0
aI0
aI0
aI0
aa(lp2518
I0
aI0
aI0
aI0
aI0
aI0
aI0
aI0
aa(lp2519
I0
aI0
aI0
aI0
aI0
aI0
aI0
aI0
aaa(lp2520
(lp2521
I0
aI0
aI0
aI0
aI0
aI0
aI0
aI0
aa(lp2522
I0
aI0
aI0
aI0
aI0
aI0
aI0
aI0
aa(lp2523
I0
aI0
aI0
aI0
aI0
aI0
aI0
aI0
aa(lp2524
I0
aI0
aI0
aI0
aI0
aI0
aI0
aI0
aa(lp2525
I0
aI0
aI0
aI0
aI0
aI0
aI0
aI0
aa(lp2526
I0
aI0
aI0
aI0
aI0
aI0
aI0
aI0
aa(lp2527
I0
aI0
aI0
aI0
aI0
aI0
aI0
aI0
aa(lp2528
I0
aI0
aI0
aI0
aI0
aI0
aI0
aI0
aa(lp2529
I0
aI0
aI0
aI0
aI0
aI0
aI0
aI0
aa(lp2530
I0
aI0
aI0
aI0
aI0
aI0
aI0
aI0
aa(lp2531
I0
aI0
aI0
aI0
aI0
aI0
aI0
aI0
aa(lp2532
I0
aI0
aI0
aI0
aI0
aI0
aI0
aI0
aaa(lp2533
(lp2534
I0
aI0
aI0
aI0
aI0
aI0
aI0
aI0
aa(lp2535
I0
aI0
aI0
aI0
aI0
aI0
aI0
aI0
aa(lp2536
I0
aI0
aI0
aI0
aI0
aI0
aI0
aI0
aa(lp2537
I0
aI0
aI0
aI0
aI0
aI0
aI0
aI0
aa(lp2538
I0
aI0
aI0
aI0
aI0
aI0
aI0
aI0
aa(lp2539
I0
aI0
aI0
aI0
aI0
aI0
aI0
aI0
aa(lp2540
I0
aI0
aI0
aI0
aI0
aI0
aI0
aI0
aa(lp2541
I0
aI0
aI0
aI0
aI0
aI0
aI0
aI0
aa(lp2542
I0
aI0
aI0
aI0
aI0
aI0
aI0
aI0
aa(lp2543
I0
aI0
aI0
aI0
aI0
aI0
aI0
aI0
aa(lp2544
I0
aI0
aI0
aI0
aI0
aI0
aI0
aI0
aa(lp2545
I0
aI0
aI0
aI0
aI0
aI0
aI0
aI0
aaa(lp2546
(lp2547
I0
aI0
aI0
aI0
aI0
aI0
aI0
aI0
aa(lp2548
I0
aI0
aI0
aI0
aI0
aI0
aI0
aI0
aa(lp2549
I0
aI0
aI0
aI0
aI0
aI0
aI0
aI0
aa(lp2550
I0
aI0
aI0
aI0
aI0
aI0
aI0
aI0
aa(lp2551
I0
aI0
aI0
aI0
aI0
aI0
aI0
aI0
aa(lp2552
I0
aI0
aI0
aI0
aI0
aI0
aI0
aI0
aa(lp2553
I0
aI0
aI0
aI0
aI0
aI0
aI0
aI0
aa(lp2554
I0
aI0
aI0
aI0
aI0
aI0
aI0
aI0
aa(lp2555
I0
aI0
aI0
aI0
aI0
aI0
aI0
aI0
aa(lp2556
I0
aI0
aI0
aI0
aI0
aI0
aI0
aI0
aa(lp2557
I0
aI0
aI0
aI0
aI0
aI0
aI0
aI0
aa(lp2558
I0
aI0
aI0
aI0
aI0
aI0
aI0
aI0
aaa(lp2559
(lp2560
I0
aI0
aI0
aI0
aI0
aI0
aI0
aI0
aa(lp2561
I0
aI0
aI0
aI0
aI0
aI0
aI0
aI0
aa(lp2562
I0
aI0
aI0
aI0
aI0
aI0
aI0
aI0
aa(lp2563
I0
aI0
aI0
aI0
aI0
aI0
aI0
aI0
aa(lp2564
I0
aI0
aI0
aI0
aI0
aI0
aI0
aI0
aa(lp2565
I0
aI0
aI0
aI0
aI0
aI0
aI0
aI0
aa(lp2566
I0
aI0
aI0
aI0
aI0
aI0
aI0
aI0
aa(lp2567
I0
aI0
aI0
aI0
aI0
aI0
aI0
aI0
aa(lp2568
I0
aI0
aI0
aI0
aI0
aI0
aI0
aI0
aa(lp2569
I0
aI0
aI0
aI0
aI0
aI0
aI0
aI0
aa(lp2570
I0
aI0
aI0
aI0
aI0
aI0
aI0
aI0
aa(lp2571
I0
aI0
aI0
aI0
aI0
aI0
aI0
aI0
aaa(lp2572
(lp2573
I0
aI0
aI0
aI0
aI0
aI0
aI0
aI0
aa(lp2574
I0
aI0
aI0
aI0
aI0
aI0
aI0
aI0
aa(lp2575
I0
aI0
aI0
aI0
aI0
aI0
aI0
aI0
aa(lp2576
I0
aI0
aI0
aI0
aI0
aI0
aI0
aI0
aa(lp2577
I0
aI0
aI0
aI0
aI0
aI0
aI0
aI0
aa(lp2578
I0
aI0
aI0
aI0
aI0
aI0
aI0
aI0
aa(lp2579
I0
aI0
aI0
aI0
aI0
aI0
aI0
aI0
aa(lp2580
I0
aI0
aI0
aI0
aI0
aI0
aI0
aI0
aa(lp2581
I0
aI0
aI0
aI0
aI0
aI0
aI0
aI0
aa(lp2582
I0
aI0
aI0
aI0
aI0
aI0
aI0
aI0
aa(lp2583
I0
aI0
aI0
aI0
aI0
aI0
aI0
aI0
aa(lp2584
I0
aI0
aI0
aI0
aI0
aI0
aI0
aI0
aaa(lp2585
(lp2586
I0
aI0
aI0
aI0
aI0
aI0
aI0
aI0
aa(lp2587
I0
aI0
aI0
aI0
aI0
aI0
aI0
aI0
aa(lp2588
I0
aI0
aI0
aI0
aI0
aI0
aI0
aI0
aa(lp2589
I0
aI0
aI0
aI0
aI0
aI0
aI0
aI0
aa(lp2590
I0
aI0
aI0
aI0
aI0
aI0
aI0
aI0
aa(lp2591
I0
aI0
aI0
aI0
aI0
aI0
aI0
aI0
aa(lp2592
I0
aI0
aI0
aI0
aI0
aI0
aI0
aI0
aa(lp2593
I0
aI0
aI0
aI0
aI0
aI0
aI0
aI0
aa(lp2594
I0
aI0
aI0
aI0
aI0
aI0
aI0
aI0
aa(lp2595
I0
aI0
aI0
aI0
aI0
aI0
aI0
aI0
aa(lp2596
I0
aI0
aI0
aI0
aI0
aI0
aI0
aI0
aa(lp2597
I0
aI0
aI0
aI0
aI0
aI0
aI0
aI0
aaa(lp2598
(lp2599
I0
aI0
aI0
aI0
aI0
aI0
aI0
aI0
aa(lp2600
I0
aI0
aI0
aI0
aI0
aI0
aI0
aI0
aa(lp2601
I0
aI0
aI0
aI0
aI0
aI0
aI0
aI0
aa(lp2602
I0
aI0
aI0
aI0
aI0
aI0
aI0
aI0
aa(lp2603
I0
aI0
aI0
aI0
aI0
aI0
aI0
aI0
aa(lp2604
I0
aI0
aI0
aI0
aI0
aI0
aI0
aI0
aa(lp2605
I0
aI0
aI0
aI0
aI0
aI0
aI0
aI0
aa(lp2606
I0
aI0
aI0
aI0
aI0
aI0
aI0
aI0
aa(lp2607
I0
aI0
aI0
aI0
aI0
aI0
aI0
aI0
aa(lp2608
I0
aI0
aI0
aI0
aI0
aI0
aI0
aI0
aa(lp2609
I0
aI0
aI0
aI0
aI0
aI0
aI0
aI0
aa(lp2610
I0
aI0
aI0
aI0
aI0
aI0
aI0
aI0
aaa(lp2611
(lp2612
I0
aI0
aI0
aI0
aI0
aI0
aI0
aI0
aa(lp2613
I0
aI0
aI0
aI0
aI0
aI0
aI0
aI0
aa(lp2614
I0
aI0
aI0
aI0
aI0
aI0
aI0
aI0
aa(lp2615
I0
aI0
aI0
aI0
aI0
aI0
aI0
aI0
aa(lp2616
I0
aI0
aI0
aI0
aI0
aI0
aI0
aI0
aa(lp2617
I0
aI0
aI0
aI0
aI0
aI0
aI0
aI0
aa(lp2618
I0
aI0
aI0
aI0
aI0
aI0
aI0
aI0
aa(lp2619
I0
aI0
aI0
aI0
aI0
aI0
aI0
aI0
aa(lp2620
I0
aI0
aI0
aI0
aI0
aI0
aI0
aI0
aa(lp2621
I0
aI0
aI0
aI0
aI0
aI0
aI0
aI0
aa(lp2622
I0
aI0
aI0
aI0
aI0
aI0
aI0
aI0
aa(lp2623
I0
aI0
aI0
aI0
aI0
aI0
aI0
aI0
aaa(lp2624
(lp2625
I0
aI0
aI0
aI0
aI0
aI0
aI0
aI0
aa(lp2626
I0
aI0
aI0
aI0
aI0
aI0
aI0
aI0
aa(lp2627
I0
aI0
aI0
aI0
aI0
aI0
aI0
aI0
aa(lp2628
I0
aI0
aI0
aI0
aI0
aI0
aI0
aI0
aa(lp2629
I0
aI0
aI0
aI0
aI0
aI0
aI0
aI0
aa(lp2630
I0
aI0
aI0
aI0
aI0
aI0
aI0
aI0
aa(lp2631
I0
aI0
aI0
aI0
aI0
aI0
aI0
aI0
aa(lp2632
I0
aI0
aI0
aI0
aI0
aI0
aI0
aI0
aa(lp2633
I0
aI0
aI0
aI0
aI0
aI0
aI0
aI0
aa(lp2634
I0
aI0
aI0
aI0
aI0
aI0
aI0
aI0
aa(lp2635
I0
aI0
aI0
aI0
aI0
aI0
aI0
aI0
aa(lp2636
I0
aI0
aI0
aI0
aI0
aI0
aI0
aI0
aaa(lp2637
(lp2638
I0
aI0
aI0
aI0
aI0
aI0
aI0
aI0
aa(lp2639
I0
aI0
aI0
aI0
aI0
aI0
aI0
aI0
aa(lp2640
I0
aI0
aI0
aI0
aI0
aI0
aI0
aI0
aa(lp2641
I0
aI0
aI0
aI0
aI0
aI0
aI0
aI0
aa(lp2642
I0
aI0
aI0
aI0
aI0
aI0
aI0
aI0
aa(lp2643
I0
aI0
aI0
aI0
aI0
aI0
aI0
aI0
aa(lp2644
I0
aI0
aI0
aI0
aI0
aI0
aI0
aI0
aa(lp2645
I0
aI0
aI0
aI0
aI0
aI0
aI0
aI0
aa(lp2646
I0
aI0
aI0
aI0
aI0
aI0
aI0
aI0
aa(lp2647
I0
aI0
aI0
aI0
aI0
aI0
aI0
aI0
aa(lp2648
I0
aI0
aI0
aI0
aI0
aI0
aI0
aI0
aa(lp2649
I0
aI0
aI0
aI0
aI0
aI0
aI0
aI0
aaa(lp2650
(lp2651
I0
aI0
aI0
aI0
aI0
aI0
aI0
aI0
aa(lp2652
I0
aI0
aI0
aI0
aI0
aI0
aI0
aI0
aa(lp2653
I0
aI0
aI0
aI0
aI0
aI0
aI0
aI0
aa(lp2654
I0
aI0
aI0
aI0
aI0
aI0
aI0
aI0
aa(lp2655
I0
aI0
aI0
aI0
aI0
aI0
aI0
aI0
aa(lp2656
I0
aI0
aI0
aI0
aI0
aI0
aI0
aI0
aa(lp2657
I0
aI0
aI0
aI0
aI0
aI0
aI0
aI0
aa(lp2658
I0
aI0
aI0
aI0
aI0
aI0
aI0
aI0
aa(lp2659
I0
aI0
aI0
aI0
aI0
aI0
aI0
aI0
aa(lp2660
I0
aI0
aI0
aI0
aI0
aI0
aI0
aI0
aa(lp2661
I0
aI0
aI0
aI0
aI0
aI0
aI0
aI0
aa(lp2662
I0
aI0
aI0
aI0
aI0
aI0
aI0
aI0
aaa(lp2663
(lp2664
I0
aI0
aI0
aI0
aI0
aI0
aI0
aI0
aa(lp2665
I0
aI0
aI0
aI0
aI0
aI0
aI0
aI0
aa(lp2666
I0
aI0
aI0
aI0
aI0
aI0
aI0
aI0
aa(lp2667
I0
aI0
aI0
aI0
aI0
aI0
aI0
aI0
aa(lp2668
I0
aI0
aI0
aI0
aI0
aI0
aI0
aI0
aa(lp2669
I0
aI0
aI0
aI0
aI0
aI0
aI0
aI0
aa(lp2670
I0
aI0
aI0
aI0
aI0
aI0
aI0
aI0
aa(lp2671
I0
aI0
aI0
aI0
aI0
aI0
aI0
aI0
aa(lp2672
I0
aI0
aI0
aI0
aI0
aI0
aI0
aI0
aa(lp2673
I0
aI0
aI0
aI0
aI0
aI0
aI0
aI0
aa(lp2674
I0
aI0
aI0
aI0
aI0
aI0
aI0
aI0
aa(lp2675
I0
aI0
aI0
aI0
aI0
aI0
aI0
aI0
aaa(lp2676
(lp2677
I0
aI0
aI0
aI0
aI0
aI0
aI0
aI0
aa(lp2678
I0
aI0
aI0
aI0
aI0
aI0
aI0
aI0
aa(lp2679
I0
aI0
aI0
aI0
aI0
aI0
aI0
aI0
aa(lp2680
I0
aI0
aI0
aI0
aI0
aI0
aI0
aI0
aa(lp2681
I0
aI0
aI0
aI0
aI0
aI0
aI0
aI0
aa(lp2682
I0
aI0
aI0
aI0
aI0
aI0
aI0
aI0
aa(lp2683
I0
aI0
aI0
aI0
aI0
aI0
aI0
aI0
aa(lp2684
I0
aI0
aI0
aI0
aI0
aI0
aI0
aI0
aa(lp2685
I0
aI0
aI0
aI0
aI0
aI0
aI0
aI0
aa(lp2686
I0
aI0
aI0
aI0
aI0
aI0
aI0
aI0
aa(lp2687
I0
aI0
aI0
aI0
aI0
aI0
aI0
aI0
aa(lp2688
I0
aI0
aI0
aI0
aI0
aI0
aI0
aI0
aaa(lp2689
(lp2690
I0
aI0
aI0
aI0
aI0
aI0
aI0
aI0
aa(lp2691
I0
aI0
aI0
aI0
aI0
aI0
aI0
aI0
aa(lp2692
I0
aI0
aI0
aI0
aI0
aI0
aI0
aI0
aa(lp2693
I0
aI0
aI0
aI0
aI0
aI0
aI0
aI0
aa(lp2694
I0
aI0
aI0
aI0
aI0
aI0
aI0
aI0
aa(lp2695
I0
aI0
aI0
aI0
aI0
aI0
aI0
aI0
aa(lp2696
I0
aI0
aI0
aI0
aI0
aI0
aI0
aI0
aa(lp2697
I0
aI0
aI0
aI0
aI0
aI0
aI0
aI0
aa(lp2698
I0
aI0
aI0
aI0
aI0
aI0
aI0
aI0
aa(lp2699
I0
aI0
aI0
aI0
aI0
aI0
aI0
aI0
aa(lp2700
I0
aI0
aI0
aI0
aI0
aI0
aI0
aI0
aa(lp2701
I0
aI0
aI0
aI0
aI0
aI0
aI0
aI0
aaa(lp2702
(lp2703
I0
aI0
aI0
aI0
aI0
aI0
aI0
aI0
aa(lp2704
I0
aI0
aI0
aI0
aI0
aI0
aI0
aI0
aa(lp2705
I0
aI0
aI0
aI0
aI0
aI0
aI0
aI0
aa(lp2706
I0
aI0
aI0
aI0
aI0
aI0
aI0
aI0
aa(lp2707
I0
aI0
aI0
aI0
aI0
aI0
aI0
aI0
aa(lp2708
I0
aI0
aI0
aI0
aI0
aI0
aI0
aI0
aa(lp2709
I0
aI0
aI0
aI0
aI0
aI0
aI0
aI0
aa(lp2710
I0
aI0
aI0
aI0
aI0
aI0
aI0
aI0
aa(lp2711
I0
aI0
aI0
aI0
aI0
aI0
aI0
aI0
aa(lp2712
I0
aI0
aI0
aI0
aI0
aI0
aI0
aI0
aa(lp2713
I0
aI0
aI0
aI0
aI0
aI0
aI0
aI0
aa(lp2714
I0
aI0
aI0
aI0
aI0
aI0
aI0
aI0
aaa(lp2715
(lp2716
I0
aI0
aI0
aI0
aI0
aI0
aI0
aI0
aa(lp2717
I0
aI0
aI0
aI0
aI0
aI0
aI0
aI0
aa(lp2718
I0
aI0
aI0
aI0
aI0
aI0
aI0
aI0
aa(lp2719
I0
aI0
aI0
aI0
aI0
aI0
aI0
aI0
aa(lp2720
I0
aI0
aI0
aI0
aI0
aI0
aI0
aI0
aa(lp2721
I0
aI0
aI0
aI0
aI0
aI0
aI0
aI0
aa(lp2722
I0
aI0
aI0
aI0
aI0
aI0
aI0
aI0
aa(lp2723
I0
aI0
aI0
aI0
aI0
aI0
aI0
aI0
aa(lp2724
I0
aI0
aI0
aI0
aI0
aI0
aI0
aI0
aa(lp2725
I0
aI0
aI0
aI0
aI0
aI0
aI0
aI0
aa(lp2726
I0
aI0
aI0
aI0
aI0
aI0
aI0
aI0
aa(lp2727
I0
aI0
aI0
aI0
aI0
aI0
aI0
aI0
aaa(lp2728
(lp2729
I0
aI0
aI0
aI0
aI0
aI0
aI0
aI0
aa(lp2730
I0
aI0
aI0
aI0
aI0
aI0
aI0
aI0
aa(lp2731
I0
aI0
aI0
aI0
aI0
aI0
aI0
aI0
aa(lp2732
I0
aI0
aI0
aI0
aI0
aI0
aI0
aI0
aa(lp2733
I0
aI0
aI0
aI0
aI0
aI0
aI0
aI0
aa(lp2734
I0
aI0
aI0
aI0
aI0
aI0
aI0
aI0
aa(lp2735
I0
aI0
aI0
aI0
aI0
aI0
aI0
aI0
aa(lp2736
I0
aI0
aI0
aI0
aI0
aI0
aI0
aI0
aa(lp2737
I0
aI0
aI0
aI0
aI0
aI0
aI0
aI0
aa(lp2738
I0
aI0
aI0
aI0
aI0
aI0
aI0
aI0
aa(lp2739
I0
aI0
aI0
aI0
aI0
aI0
aI0
aI0
aa(lp2740
I0
aI0
aI0
aI0
aI0
aI0
aI0
aI0
aaa(lp2741
(lp2742
I0
aI0
aI0
aI0
aI0
aI0
aI0
aI0
aa(lp2743
I0
aI0
aI0
aI0
aI0
aI0
aI0
aI0
aa(lp2744
I0
aI0
aI0
aI0
aI0
aI0
aI0
aI0
aa(lp2745
I0
aI0
aI0
aI0
aI0
aI0
aI0
aI0
aa(lp2746
I0
aI0
aI0
aI0
aI0
aI0
aI0
aI0
aa(lp2747
I0
aI0
aI0
aI0
aI0
aI0
aI0
aI0
aa(lp2748
I0
aI0
aI0
aI0
aI0
aI0
aI0
aI0
aa(lp2749
I0
aI0
aI0
aI0
aI0
aI0
aI0
aI0
aa(lp2750
I0
aI0
aI0
aI0
aI0
aI0
aI0
aI0
aa(lp2751
I0
aI0
aI0
aI0
aI0
aI0
aI0
aI0
aa(lp2752
I0
aI0
aI0
aI0
aI0
aI0
aI0
aI0
aa(lp2753
I0
aI0
aI0
aI0
aI0
aI0
aI0
aI0
aaa(lp2754
(lp2755
I0
aI0
aI0
aI0
aI0
aI0
aI0
aI0
aa(lp2756
I0
aI0
aI0
aI0
aI0
aI0
aI0
aI0
aa(lp2757
I0
aI0
aI0
aI0
aI0
aI0
aI0
aI0
aa(lp2758
I0
aI0
aI0
aI0
aI0
aI0
aI0
aI0
aa(lp2759
I0
aI0
aI0
aI0
aI0
aI0
aI0
aI0
aa(lp2760
I0
aI0
aI0
aI0
aI0
aI0
aI0
aI0
aa(lp2761
I0
aI0
aI0
aI0
aI0
aI0
aI0
aI0
aa(lp2762
I0
aI0
aI0
aI0
aI0
aI0
aI0
aI0
aa(lp2763
I0
aI0
aI0
aI0
aI0
aI0
aI0
aI0
aa(lp2764
I0
aI0
aI0
aI0
aI0
aI0
aI0
aI0
aa(lp2765
I0
aI0
aI0
aI0
aI0
aI0
aI0
aI0
aa(lp2766
I0
aI0
aI0
aI0
aI0
aI0
aI0
aI0
aaa(lp2767
(lp2768
I0
aI0
aI0
aI0
aI0
aI0
aI0
aI0
aa(lp2769
I0
aI0
aI0
aI0
aI0
aI0
aI0
aI0
aa(lp2770
I0
aI0
aI0
aI0
aI0
aI0
aI0
aI0
aa(lp2771
I0
aI0
aI0
aI0
aI0
aI0
aI0
aI0
aa(lp2772
I0
aI0
aI0
aI0
aI0
aI0
aI0
aI0
aa(lp2773
I0
aI0
aI0
aI0
aI0
aI0
aI0
aI0
aa(lp2774
I0
aI0
aI0
aI0
aI0
aI0
aI0
aI0
aa(lp2775
I0
aI0
aI0
aI0
aI0
aI0
aI0
aI0
aa(lp2776
I0
aI0
aI0
aI0
aI0
aI0
aI0
aI0
aa(lp2777
I0
aI0
aI0
aI0
aI0
aI0
aI0
aI0
aa(lp2778
I0
aI0
aI0
aI0
aI0
aI0
aI0
aI0
aa(lp2779
I0
aI0
aI0
aI0
aI0
aI0
aI0
aI0
aaa(lp2780
(lp2781
I0
aI0
aI0
aI0
aI0
aI0
aI0
aI0
aa(lp2782
I0
aI0
aI0
aI0
aI0
aI0
aI0
aI0
aa(lp2783
I0
aI0
aI0
aI0
aI0
aI0
aI0
aI0
aa(lp2784
I0
aI0
aI0
aI0
aI0
aI0
aI0
aI0
aa(lp2785
I0
aI0
aI0
aI0
aI0
aI0
aI0
aI0
aa(lp2786
I0
aI0
aI0
aI0
aI0
aI0
aI0
aI0
aa(lp2787
I0
aI0
aI0
aI0
aI0
aI0
aI0
aI0
aa(lp2788
I0
aI0
aI0
aI0
aI0
aI0
aI0
aI0
aa(lp2789
I0
aI0
aI0
aI0
aI0
aI0
aI0
aI0
aa(lp2790
I0
aI0
aI0
aI0
aI0
aI0
aI0
aI0
aa(lp2791
I0
aI0
aI0
aI0
aI0
aI0
aI0
aI0
aa(lp2792
I0
aI0
aI0
aI0
aI0
aI0
aI0
aI0
aaa(lp2793
(lp2794
I0
aI0
aI0
aI0
aI0
aI0
aI0
aI0
aa(lp2795
I0
aI0
aI0
aI0
aI0
aI0
aI0
aI0
aa(lp2796
I0
aI0
aI0
aI0
aI0
aI0
aI0
aI0
aa(lp2797
I0
aI0
aI0
aI0
aI0
aI0
aI0
aI0
aa(lp2798
I0
aI0
aI0
aI0
aI0
aI0
aI0
aI0
aa(lp2799
I0
aI0
aI0
aI0
aI0
aI0
aI0
aI0
aa(lp2800
I0
aI0
aI0
aI0
aI0
aI0
aI0
aI0
aa(lp2801
I0
aI0
aI0
aI0
aI0
aI0
aI0
aI0
aa(lp2802
I0
aI0
aI0
aI0
aI0
aI0
aI0
aI0
aa(lp2803
I0
aI0
aI0
aI0
aI0
aI0
aI0
aI0
aa(lp2804
I0
aI0
aI0
aI0
aI0
aI0
aI0
aI0
aa(lp2805
I0
aI0
aI0
aI0
aI0
aI0
aI0
aI0
aaa(lp2806
(lp2807
I0
aI0
aI0
aI0
aI0
aI0
aI0
aI0
aa(lp2808
I0
aI0
aI0
aI0
aI0
aI0
aI0
aI0
aa(lp2809
I0
aI0
aI0
aI0
aI0
aI0
aI0
aI0
aa(lp2810
I0
aI0
aI0
aI0
aI0
aI0
aI0
aI0
aa(lp2811
I0
aI0
aI0
aI0
aI0
aI0
aI0
aI0
aa(lp2812
I0
aI0
aI0
aI0
aI0
aI0
aI0
aI0
aa(lp2813
I0
aI0
aI0
aI0
aI0
aI0
aI0
aI0
aa(lp2814
I0
aI0
aI0
aI0
aI0
aI0
aI0
aI0
aa(lp2815
I0
aI0
aI0
aI0
aI0
aI0
aI0
aI0
aa(lp2816
I0
aI0
aI0
aI0
aI0
aI0
aI0
aI0
aa(lp2817
I0
aI0
aI0
aI0
aI0
aI0
aI0
aI0
aa(lp2818
I0
aI0
aI0
aI0
aI0
aI0
aI0
aI0
aaa(lp2819
(lp2820
I0
aI0
aI0
aI0
aI0
aI0
aI0
aI0
aa(lp2821
I0
aI0
aI0
aI0
aI0
aI0
aI0
aI0
aa(lp2822
I0
aI0
aI0
aI0
aI0
aI0
aI0
aI0
aa(lp2823
I0
aI0
aI0
aI0
aI0
aI0
aI0
aI0
aa(lp2824
I0
aI0
aI0
aI0
aI0
aI0
aI0
aI0
aa(lp2825
I0
aI0
aI0
aI0
aI0
aI0
aI0
aI0
aa(lp2826
I0
aI0
aI0
aI0
aI0
aI0
aI0
aI0
aa(lp2827
I0
aI0
aI0
aI0
aI0
aI0
aI0
aI0
aa(lp2828
I0
aI0
aI0
aI0
aI0
aI0
aI0
aI0
aa(lp2829
I0
aI0
aI0
aI0
aI0
aI0
aI0
aI0
aa(lp2830
I0
aI0
aI0
aI0
aI0
aI0
aI0
aI0
aa(lp2831
I0
aI0
aI0
aI0
aI0
aI0
aI0
aI0
aaa(lp2832
(lp2833
I0
aI0
aI0
aI0
aI0
aI0
aI0
aI0
aa(lp2834
I0
aI0
aI0
aI0
aI0
aI0
aI0
aI0
aa(lp2835
I0
aI0
aI0
aI0
aI0
aI0
aI0
aI0
aa(lp2836
I0
aI0
aI0
aI0
aI0
aI0
aI0
aI0
aa(lp2837
I0
aI0
aI0
aI0
aI0
aI0
aI0
aI0
aa(lp2838
I0
aI0
aI0
aI0
aI0
aI0
aI0
aI0
aa(lp2839
I0
aI0
aI0
aI0
aI0
aI0
aI0
aI0
aa(lp2840
I0
aI0
aI0
aI0
aI0
aI0
aI0
aI0
aa(lp2841
I0
aI0
aI0
aI0
aI0
aI0
aI0
aI0
aa(lp2842
I0
aI0
aI0
aI0
aI0
aI0
aI0
aI0
aa(lp2843
I0
aI0
aI0
aI0
aI0
aI0
aI0
aI0
aa(lp2844
I0
aI0
aI0
aI0
aI0
aI0
aI0
aI0
aaa(lp2845
(lp2846
I0
aI0
aI0
aI0
aI0
aI0
aI0
aI0
aa(lp2847
I0
aI0
aI0
aI0
aI0
aI0
aI0
aI0
aa(lp2848
I0
aI0
aI0
aI0
aI0
aI0
aI0
aI0
aa(lp2849
I0
aI0
aI0
aI0
aI0
aI0
aI0
aI0
aa(lp2850
I0
aI0
aI0
aI0
aI0
aI0
aI0
aI0
aa(lp2851
I0
aI0
aI0
aI0
aI0
aI0
aI0
aI0
aa(lp2852
I0
aI0
aI0
aI0
aI0
aI0
aI0
aI0
aa(lp2853
I0
aI0
aI0
aI0
aI0
aI0
aI0
aI0
aa(lp2854
I0
aI0
aI0
aI0
aI0
aI0
aI0
aI0
aa(lp2855
I0
aI0
aI0
aI0
aI0
aI0
aI0
aI0
aa(lp2856
I0
aI0
aI0
aI0
aI0
aI0
aI0
aI0
aa(lp2857
I0
aI0
aI0
aI0
aI0
aI0
aI0
aI0
aaa(lp2858
(lp2859
I0
aI0
aI0
aI0
aI0
aI0
aI0
aI0
aa(lp2860
I0
aI0
aI0
aI0
aI0
aI0
aI0
aI0
aa(lp2861
I0
aI0
aI0
aI0
aI0
aI0
aI0
aI0
aa(lp2862
I0
aI0
aI0
aI0
aI0
aI0
aI0
aI0
aa(lp2863
I0
aI0
aI0
aI0
aI0
aI0
aI0
aI0
aa(lp2864
I0
aI0
aI0
aI0
aI0
aI0
aI0
aI0
aa(lp2865
I0
aI0
aI0
aI0
aI0
aI0
aI0
aI0
aa(lp2866
I0
aI0
aI0
aI0
aI0
aI0
aI0
aI0
aa(lp2867
I0
aI0
aI0
aI0
aI0
aI0
aI0
aI0
aa(lp2868
I0
aI0
aI0
aI0
aI0
aI0
aI0
aI0
aa(lp2869
I0
aI0
aI0
aI0
aI0
aI0
aI0
aI0
aa(lp2870
I0
aI0
aI0
aI0
aI0
aI0
aI0
aI0
aaa(lp2871
(lp2872
I0
aI0
aI0
aI0
aI0
aI0
aI0
aI0
aa(lp2873
I0
aI0
aI0
aI0
aI0
aI0
aI0
aI0
aa(lp2874
I0
aI0
aI0
aI0
aI0
aI0
aI0
aI0
aa(lp2875
I0
aI0
aI0
aI0
aI0
aI0
aI0
aI0
aa(lp2876
I0
aI0
aI0
aI0
aI0
aI0
aI0
aI0
aa(lp2877
I0
aI0
aI0
aI0
aI0
aI0
aI0
aI0
aa(lp2878
I0
aI0
aI0
aI0
aI0
aI0
aI0
aI0
aa(lp2879
I0
aI0
aI0
aI0
aI0
aI0
aI0
aI0
aa(lp2880
I0
aI0
aI0
aI0
aI0
aI0
aI0
aI0
aa(lp2881
I0
aI0
aI0
aI0
aI0
aI0
aI0
aI0
aa(lp2882
I0
aI0
aI0
aI0
aI0
aI0
aI0
aI0
aa(lp2883
I0
aI0
aI0
aI0
aI0
aI0
aI0
aI0
aaa(lp2884
(lp2885
I0
aI0
aI0
aI0
aI0
aI0
aI0
aI0
aa(lp2886
I0
aI0
aI0
aI0
aI0
aI0
aI0
aI0
aa(lp2887
I0
aI0
aI0
aI0
aI0
aI0
aI0
aI0
aa(lp2888
I0
aI0
aI0
aI0
aI0
aI0
aI0
aI0
aa(lp2889
I0
aI0
aI0
aI0
aI0
aI0
aI0
aI0
aa(lp2890
I0
aI0
aI0
aI0
aI0
aI0
aI0
aI0
aa(lp2891
I0
aI0
aI0
aI0
aI0
aI0
aI0
aI0
aa(lp2892
I0
aI0
aI0
aI0
aI0
aI0
aI0
aI0
aa(lp2893
I0
aI0
aI0
aI0
aI0
aI0
aI0
aI0
aa(lp2894
I0
aI0
aI0
aI0
aI0
aI0
aI0
aI0
aa(lp2895
I0
aI0
aI0
aI0
aI0
aI0
aI0
aI0
aa(lp2896
I0
aI0
aI0
aI0
aI0
aI0
aI0
aI0
aaa(lp2897
(lp2898
I0
aI0
aI0
aI0
aI0
aI0
aI0
aI0
aa(lp2899
I0
aI0
aI0
aI0
aI0
aI0
aI0
aI0
aa(lp2900
I0
aI0
aI0
aI0
aI0
aI0
aI0
aI0
aa(lp2901
I0
aI0
aI0
aI0
aI0
aI0
aI0
aI0
aa(lp2902
I0
aI0
aI0
aI0
aI0
aI0
aI0
aI0
aa(lp2903
I0
aI0
aI0
aI0
aI0
aI0
aI0
aI0
aa(lp2904
I0
aI0
aI0
aI0
aI0
aI0
aI0
aI0
aa(lp2905
I0
aI0
aI0
aI0
aI0
aI0
aI0
aI0
aa(lp2906
I0
aI0
aI0
aI0
aI0
aI0
aI0
aI0
aa(lp2907
I0
aI0
aI0
aI0
aI0
aI0
aI0
aI0
aa(lp2908
I0
aI0
aI0
aI0
aI0
aI0
aI0
aI0
aa(lp2909
I0
aI0
aI0
aI0
aI0
aI0
aI0
aI0
aaa(lp2910
(lp2911
I0
aI0
aI0
aI0
aI0
aI0
aI0
aI0
aa(lp2912
I0
aI0
aI0
aI0
aI0
aI0
aI0
aI0
aa(lp2913
I0
aI0
aI0
aI0
aI0
aI0
aI0
aI0
aa(lp2914
I0
aI0
aI0
aI0
aI0
aI0
aI0
aI0
aa(lp2915
I0
aI0
aI0
aI0
aI0
aI0
aI0
aI0
aa(lp2916
I0
aI0
aI0
aI0
aI0
aI0
aI0
aI0
aa(lp2917
I0
aI0
aI0
aI0
aI0
aI0
aI0
aI0
aa(lp2918
I0
aI0
aI0
aI0
aI0
aI0
aI0
aI0
aa(lp2919
I0
aI0
aI0
aI0
aI0
aI0
aI0
aI0
aa(lp2920
I0
aI0
aI0
aI0
aI0
aI0
aI0
aI0
aa(lp2921
I0
aI0
aI0
aI0
aI0
aI0
aI0
aI0
aa(lp2922
I0
aI0
aI0
aI0
aI0
aI0
aI0
aI0
aaa(lp2923
(lp2924
I0
aI0
aI0
aI0
aI0
aI0
aI0
aI0
aa(lp2925
I0
aI0
aI0
aI0
aI0
aI0
aI0
aI0
aa(lp2926
I0
aI0
aI0
aI0
aI0
aI0
aI0
aI0
aa(lp2927
I0
aI0
aI0
aI0
aI0
aI0
aI0
aI0
aa(lp2928
I0
aI0
aI0
aI0
aI0
aI0
aI0
aI0
aa(lp2929
I0
aI0
aI0
aI0
aI0
aI0
aI0
aI0
aa(lp2930
I0
aI0
aI0
aI0
aI0
aI0
aI0
aI0
aa(lp2931
I0
aI0
aI0
aI0
aI0
aI0
aI0
aI0
aa(lp2932
I0
aI0
aI0
aI0
aI0
aI0
aI0
aI0
aa(lp2933
I0
aI0
aI0
aI0
aI0
aI0
aI0
aI0
aa(lp2934
I0
aI0
aI0
aI0
aI0
aI0
aI0
aI0
aa(lp2935
I0
aI0
aI0
aI0
aI0
aI0
aI0
aI0
aaa(lp2936
(lp2937
I0
aI0
aI0
aI0
aI0
aI0
aI0
aI0
aa(lp2938
I0
aI0
aI0
aI0
aI0
aI0
aI0
aI0
aa(lp2939
I0
aI0
aI0
aI0
aI0
aI0
aI0
aI0
aa(lp2940
I0
aI0
aI0
aI0
aI0
aI0
aI0
aI0
aa(lp2941
I0
aI0
aI0
aI0
aI0
aI0
aI0
aI0
aa(lp2942
I0
aI0
aI0
aI0
aI0
aI0
aI0
aI0
aa(lp2943
I0
aI0
aI0
aI0
aI0
aI0
aI0
aI0
aa(lp2944
I0
aI0
aI0
aI0
aI0
aI0
aI0
aI0
aa(lp2945
I0
aI0
aI0
aI0
aI0
aI0
aI0
aI0
aa(lp2946
I0
aI0
aI0
aI0
aI0
aI0
aI0
aI0
aa(lp2947
I0
aI0
aI0
aI0
aI0
aI0
aI0
aI0
aa(lp2948
I0
aI0
aI0
aI0
aI0
aI0
aI0
aI0
aaa(lp2949
(lp2950
I0
aI0
aI0
aI0
aI0
aI0
aI0
aI0
aa(lp2951
I0
aI0
aI0
aI0
aI0
aI0
aI0
aI0
aa(lp2952
I0
aI0
aI0
aI0
aI0
aI0
aI0
aI0
aa(lp2953
I0
aI0
aI0
aI0
aI0
aI0
aI0
aI0
aa(lp2954
I0
aI0
aI0
aI0
aI0
aI0
aI0
aI0
aa(lp2955
I0
aI0
aI0
aI0
aI0
aI0
aI0
aI0
aa(lp2956
I0
aI0
aI0
aI0
aI0
aI0
aI0
aI0
aa(lp2957
I0
aI0
aI0
aI0
aI0
aI0
aI0
aI0
aa(lp2958
I0
aI0
aI0
aI0
aI0
aI0
aI0
aI0
aa(lp2959
I0
aI0
aI0
aI0
aI0
aI0
aI0
aI0
aa(lp2960
I0
aI0
aI0
aI0
aI0
aI0
aI0
aI0
aa(lp2961
I0
aI0
aI0
aI0
aI0
aI0
aI0
aI0
aaa(lp2962
(lp2963
I0
aI0
aI0
aI0
aI0
aI0
aI0
aI0
aa(lp2964
I0
aI0
aI0
aI0
aI0
aI0
aI0
aI0
aa(lp2965
I0
aI0
aI0
aI0
aI0
aI0
aI0
aI0
aa(lp2966
I0
aI0
aI0
aI0
aI0
aI0
aI0
aI0
aa(lp2967
I0
aI0
aI0
aI0
aI0
aI0
aI0
aI0
aa(lp2968
I0
aI0
aI0
aI0
aI0
aI0
aI0
aI0
aa(lp2969
I0
aI0
aI0
aI0
aI0
aI0
aI0
aI0
aa(lp2970
I0
aI0
aI0
aI0
aI0
aI0
aI0
aI0
aa(lp2971
I0
aI0
aI0
aI0
aI0
aI0
aI0
aI0
aa(lp2972
I0
aI0
aI0
aI0
aI0
aI0
aI0
aI0
aa(lp2973
I0
aI0
aI0
aI0
aI0
aI0
aI0
aI0
aa(lp2974
I0
aI0
aI0
aI0
aI0
aI0
aI0
aI0
aaa(lp2975
(lp2976
I0
aI0
aI0
aI0
aI0
aI0
aI0
aI0
aa(lp2977
I0
aI0
aI0
aI0
aI0
aI0
aI0
aI0
aa(lp2978
I0
aI0
aI0
aI0
aI0
aI0
aI0
aI0
aa(lp2979
I0
aI0
aI0
aI0
aI0
aI0
aI0
aI0
aa(lp2980
I0
aI0
aI0
aI0
aI0
aI0
aI0
aI0
aa(lp2981
I0
aI0
aI0
aI0
aI0
aI0
aI0
aI0
aa(lp2982
I0
aI0
aI0
aI0
aI0
aI0
aI0
aI0
aa(lp2983
I0
aI0
aI0
aI0
aI0
aI0
aI0
aI0
aa(lp2984
I0
aI0
aI0
aI0
aI0
aI0
aI0
aI0
aa(lp2985
I0
aI0
aI0
aI0
aI0
aI0
aI0
aI0
aa(lp2986
I0
aI0
aI0
aI0
aI0
aI0
aI0
aI0
aa(lp2987
I0
aI0
aI0
aI0
aI0
aI0
aI0
aI0
aaa(lp2988
(lp2989
I0
aI0
aI0
aI0
aI0
aI0
aI0
aI0
aa(lp2990
I0
aI0
aI0
aI0
aI0
aI0
aI0
aI0
aa(lp2991
I0
aI0
aI0
aI0
aI0
aI0
aI0
aI0
aa(lp2992
I0
aI0
aI0
aI0
aI0
aI0
aI0
aI0
aa(lp2993
I0
aI0
aI0
aI0
aI0
aI0
aI0
aI0
aa(lp2994
I0
aI0
aI0
aI0
aI0
aI0
aI0
aI0
aa(lp2995
I0
aI0
aI0
aI0
aI0
aI0
aI0
aI0
aa(lp2996
I0
aI0
aI0
aI0
aI0
aI0
aI0
aI0
aa(lp2997
I0
aI0
aI0
aI0
aI0
aI0
aI0
aI0
aa(lp2998
I0
aI0
aI0
aI0
aI0
aI0
aI0
aI0
aa(lp2999
I0
aI0
aI0
aI0
aI0
aI0
aI0
aI0
aa(lp3000
I0
aI0
aI0
aI0
aI0
aI0
aI0
aI0
aaa(lp3001
(lp3002
I0
aI0
aI0
aI0
aI0
aI0
aI0
aI0
aa(lp3003
I0
aI0
aI0
aI0
aI0
aI0
aI0
aI0
aa(lp3004
I0
aI0
aI0
aI0
aI0
aI0
aI0
aI0
aa(lp3005
I0
aI0
aI0
aI0
aI0
aI0
aI0
aI0
aa(lp3006
I0
aI0
aI0
aI0
aI0
aI0
aI0
aI0
aa(lp3007
I0
aI0
aI0
aI0
aI0
aI0
aI0
aI0
aa(lp3008
I0
aI0
aI0
aI0
aI0
aI0
aI0
aI0
aa(lp3009
I0
aI0
aI0
aI0
aI0
aI0
aI0
aI0
aa(lp3010
I0
aI0
aI0
aI0
aI0
aI0
aI0
aI0
aa(lp3011
I0
aI0
aI0
aI0
aI0
aI0
aI0
aI0
aa(lp3012
I0
aI0
aI0
aI0
aI0
aI0
aI0
aI0
aa(lp3013
I0
aI0
aI0
aI0
aI0
aI0
aI0
aI0
aaa(lp3014
(lp3015
I0
aI0
aI0
aI0
aI0
aI0
aI0
aI0
aa(lp3016
I0
aI0
aI0
aI0
aI0
aI0
aI0
aI0
aa(lp3017
I0
aI0
aI0
aI0
aI0
aI0
aI0
aI0
aa(lp3018
I0
aI0
aI0
aI0
aI0
aI0
aI0
aI0
aa(lp3019
I0
aI0
aI0
aI0
aI0
aI0
aI0
aI0
aa(lp3020
I0
aI0
aI0
aI0
aI0
aI0
aI0
aI0
aa(lp3021
I0
aI0
aI0
aI0
aI0
aI0
aI0
aI0
aa(lp3022
I0
aI0
aI0
aI0
aI0
aI0
aI0
aI0
aa(lp3023
I0
aI0
aI0
aI0
aI0
aI0
aI0
aI0
aa(lp3024
I0
aI0
aI0
aI0
aI0
aI0
aI0
aI0
aa(lp3025
I0
aI0
aI0
aI0
aI0
aI0
aI0
aI0
aa(lp3026
I0
aI0
aI0
aI0
aI0
aI0
aI0
aI0
aaa(lp3027
(lp3028
I0
aI0
aI0
aI0
aI0
aI0
aI0
aI0
aa(lp3029
I0
aI0
aI0
aI0
aI0
aI0
aI0
aI0
aa(lp3030
I0
aI0
aI0
aI0
aI0
aI0
aI0
aI0
aa(lp3031
I0
aI0
aI0
aI0
aI0
aI0
aI0
aI0
aa(lp3032
I0
aI0
aI0
aI0
aI0
aI0
aI0
aI0
aa(lp3033
I0
aI0
aI0
aI0
aI0
aI0
aI0
aI0
aa(lp3034
I0
aI0
aI0
aI0
aI0
aI0
aI0
aI0
aa(lp3035
I0
aI0
aI0
aI0
aI0
aI0
aI0
aI0
aa(lp3036
I0
aI0
aI0
aI0
aI0
aI0
aI0
aI0
aa(lp3037
I0
aI0
aI0
aI0
aI0
aI0
aI0
aI0
aa(lp3038
I0
aI0
aI0
aI0
aI0
aI0
aI0
aI0
aa(lp3039
I0
aI0
aI0
aI0
aI0
aI0
aI0
aI0
aaa(lp3040
(lp3041
I0
aI0
aI0
aI0
aI0
aI0
aI0
aI0
aa(lp3042
I0
aI0
aI0
aI0
aI0
aI0
aI0
aI0
aa(lp3043
I0
aI0
aI0
aI0
aI0
aI0
aI0
aI0
aa(lp3044
I0
aI0
aI0
aI0
aI0
aI0
aI0
aI0
aa(lp3045
I0
aI0
aI0
aI0
aI0
aI0
aI0
aI0
aa(lp3046
I0
aI0
aI0
aI0
aI0
aI0
aI0
aI0
aa(lp3047
I0
aI0
aI0
aI0
aI0
aI0
aI0
aI0
aa(lp3048
I0
aI0
aI0
aI0
aI0
aI0
aI0
aI0
aa(lp3049
I0
aI0
aI0
aI0
aI0
aI0
aI0
aI0
aa(lp3050
I0
aI0
aI0
aI0
aI0
aI0
aI0
aI0
aa(lp3051
I0
aI0
aI0
aI0
aI0
aI0
aI0
aI0
aa(lp3052
I0
aI0
aI0
aI0
aI0
aI0
aI0
aI0
aaa(lp3053
(lp3054
I0
aI0
aI0
aI0
aI0
aI0
aI0
aI0
aa(lp3055
I0
aI0
aI0
aI0
aI0
aI0
aI0
aI0
aa(lp3056
I0
aI0
aI0
aI0
aI0
aI0
aI0
aI0
aa(lp3057
I0
aI0
aI0
aI0
aI0
aI0
aI0
aI0
aa(lp3058
I0
aI0
aI0
aI0
aI0
aI0
aI0
aI0
aa(lp3059
I0
aI0
aI0
aI0
aI0
aI0
aI0
aI0
aa(lp3060
I0
aI0
aI0
aI0
aI0
aI0
aI0
aI0
aa(lp3061
I0
aI0
aI0
aI0
aI0
aI0
aI0
aI0
aa(lp3062
I0
aI0
aI0
aI0
aI0
aI0
aI0
aI0
aa(lp3063
I0
aI0
aI0
aI0
aI0
aI0
aI0
aI0
aa(lp3064
I0
aI0
aI0
aI0
aI0
aI0
aI0
aI0
aa(lp3065
I0
aI0
aI0
aI0
aI0
aI0
aI0
aI0
aaa(lp3066
(lp3067
I0
aI0
aI0
aI0
aI0
aI0
aI0
aI0
aa(lp3068
I0
aI0
aI0
aI0
aI0
aI0
aI0
aI0
aa(lp3069
I0
aI0
aI0
aI0
aI0
aI0
aI0
aI0
aa(lp3070
I0
aI0
aI0
aI0
aI0
aI0
aI0
aI0
aa(lp3071
I0
aI0
aI0
aI0
aI0
aI0
aI0
aI0
aa(lp3072
I0
aI0
aI0
aI0
aI0
aI0
aI0
aI0
aa(lp3073
I0
aI0
aI0
aI0
aI0
aI0
aI0
aI0
aa(lp3074
I0
aI0
aI0
aI0
aI0
aI0
aI0
aI0
aa(lp3075
I0
aI0
aI0
aI0
aI0
aI0
aI0
aI0
aa(lp3076
I0
aI0
aI0
aI0
aI0
aI0
aI0
aI0
aa(lp3077
I0
aI0
aI0
aI0
aI0
aI0
aI0
aI0
aa(lp3078
I0
aI0
aI0
aI0
aI0
aI0
aI0
aI0
aaa(lp3079
(lp3080
I0
aI0
aI0
aI0
aI0
aI0
aI0
aI0
aa(lp3081
I0
aI0
aI0
aI0
aI0
aI0
aI0
aI0
aa(lp3082
I0
aI0
aI0
aI0
aI0
aI0
aI0
aI0
aa(lp3083
I0
aI0
aI0
aI0
aI0
aI0
aI0
aI0
aa(lp3084
I0
aI0
aI0
aI0
aI0
aI0
aI0
aI0
aa(lp3085
I0
aI0
aI0
aI0
aI0
aI0
aI0
aI0
aa(lp3086
I0
aI0
aI0
aI0
aI0
aI0
aI0
aI0
aa(lp3087
I0
aI0
aI0
aI0
aI0
aI0
aI0
aI0
aa(lp3088
I0
aI0
aI0
aI0
aI0
aI0
aI0
aI0
aa(lp3089
I0
aI0
aI0
aI0
aI0
aI0
aI0
aI0
aa(lp3090
I0
aI0
aI0
aI0
aI0
aI0
aI0
aI0
aa(lp3091
I0
aI0
aI0
aI0
aI0
aI0
aI0
aI0
aaa(lp3092
(lp3093
I0
aI0
aI0
aI0
aI0
aI0
aI0
aI0
aa(lp3094
I0
aI0
aI0
aI0
aI0
aI0
aI0
aI0
aa(lp3095
I0
aI0
aI0
aI0
aI0
aI0
aI0
aI0
aa(lp3096
I0
aI0
aI0
aI0
aI0
aI0
aI0
aI0
aa(lp3097
I0
aI0
aI0
aI0
aI0
aI0
aI0
aI0
aa(lp3098
I0
aI0
aI0
aI0
aI0
aI0
aI0
aI0
aa(lp3099
I0
aI0
aI0
aI0
aI0
aI0
aI0
aI0
aa(lp3100
I0
aI0
aI0
aI0
aI0
aI0
aI0
aI0
aa(lp3101
I0
aI0
aI0
aI0
aI0
aI0
aI0
aI0
aa(lp3102
I0
aI0
aI0
aI0
aI0
aI0
aI0
aI0
aa(lp3103
I0
aI0
aI0
aI0
aI0
aI0
aI0
aI0
aa(lp3104
I0
aI0
aI0
aI0
aI0
aI0
aI0
aI0
aaa(lp3105
(lp3106
I0
aI0
aI0
aI0
aI0
aI0
aI0
aI0
aa(lp3107
I0
aI0
aI0
aI0
aI0
aI0
aI0
aI0
aa(lp3108
I0
aI0
aI0
aI0
aI0
aI0
aI0
aI0
aa(lp3109
I0
aI0
aI0
aI0
aI0
aI0
aI0
aI0
aa(lp3110
I0
aI0
aI0
aI0
aI0
aI0
aI0
aI0
aa(lp3111
I0
aI0
aI0
aI0
aI0
aI0
aI0
aI0
aa(lp3112
I0
aI0
aI0
aI0
aI0
aI0
aI0
aI0
aa(lp3113
I0
aI0
aI0
aI0
aI0
aI0
aI0
aI0
aa(lp3114
I0
aI0
aI0
aI0
aI0
aI0
aI0
aI0
aa(lp3115
I0
aI0
aI0
aI0
aI0
aI0
aI0
aI0
aa(lp3116
I0
aI0
aI0
aI0
aI0
aI0
aI0
aI0
aa(lp3117
I0
aI0
aI0
aI0
aI0
aI0
aI0
aI0
aaa(lp3118
(lp3119
I0
aI0
aI0
aI0
aI0
aI0
aI0
aI0
aa(lp3120
I0
aI0
aI0
aI0
aI0
aI0
aI0
aI0
aa(lp3121
I0
aI0
aI0
aI0
aI0
aI0
aI0
aI0
aa(lp3122
I0
aI0
aI0
aI0
aI0
aI0
aI0
aI0
aa(lp3123
I0
aI0
aI0
aI0
aI0
aI0
aI0
aI0
aa(lp3124
I0
aI0
aI0
aI0
aI0
aI0
aI0
aI0
aa(lp3125
I0
aI0
aI0
aI0
aI0
aI0
aI0
aI0
aa(lp3126
I0
aI0
aI0
aI0
aI0
aI0
aI0
aI0
aa(lp3127
I0
aI0
aI0
aI0
aI0
aI0
aI0
aI0
aa(lp3128
I0
aI0
aI0
aI0
aI0
aI0
aI0
aI0
aa(lp3129
I0
aI0
aI0
aI0
aI0
aI0
aI0
aI0
aa(lp3130
I0
aI0
aI0
aI0
aI0
aI0
aI0
aI0
aaa(lp3131
(lp3132
I0
aI0
aI0
aI0
aI0
aI0
aI0
aI0
aa(lp3133
I0
aI0
aI0
aI0
aI0
aI0
aI0
aI0
aa(lp3134
I0
aI0
aI0
aI0
aI0
aI0
aI0
aI0
aa(lp3135
I0
aI0
aI0
aI0
aI0
aI0
aI0
aI0
aa(lp3136
I0
aI0
aI0
aI0
aI0
aI0
aI0
aI0
aa(lp3137
I0
aI0
aI0
aI0
aI0
aI0
aI0
aI0
aa(lp3138
I0
aI0
aI0
aI0
aI0
aI0
aI0
aI0
aa(lp3139
I0
aI0
aI0
aI0
aI0
aI0
aI0
aI0
aa(lp3140
I0
aI0
aI0
aI0
aI0
aI0
aI0
aI0
aa(lp3141
I0
aI0
aI0
aI0
aI0
aI0
aI0
aI0
aa(lp3142
I0
aI0
aI0
aI0
aI0
aI0
aI0
aI0
aa(lp3143
I0
aI0
aI0
aI0
aI0
aI0
aI0
aI0
aaa(lp3144
(lp3145
I0
aI0
aI0
aI0
aI0
aI0
aI0
aI0
aa(lp3146
I0
aI0
aI0
aI0
aI0
aI0
aI0
aI0
aa(lp3147
I0
aI0
aI0
aI0
aI0
aI0
aI0
aI0
aa(lp3148
I0
aI0
aI0
aI0
aI0
aI0
aI0
aI0
aa(lp3149
I0
aI0
aI0
aI0
aI0
aI0
aI0
aI0
aa(lp3150
I0
aI0
aI0
aI0
aI0
aI0
aI0
aI0
aa(lp3151
I0
aI0
aI0
aI0
aI0
aI0
aI0
aI0
aa(lp3152
I0
aI0
aI0
aI0
aI0
aI0
aI0
aI0
aa(lp3153
I0
aI0
aI0
aI0
aI0
aI0
aI0
aI0
aa(lp3154
I0
aI0
aI0
aI0
aI0
aI0
aI0
aI0
aa(lp3155
I0
aI0
aI0
aI0
aI0
aI0
aI0
aI0
aa(lp3156
I0
aI0
aI0
aI0
aI0
aI0
aI0
aI0
aaa(lp3157
(lp3158
I0
aI0
aI0
aI0
aI0
aI0
aI0
aI0
aa(lp3159
I0
aI0
aI0
aI0
aI0
aI0
aI0
aI0
aa(lp3160
I0
aI0
aI0
aI0
aI0
aI0
aI0
aI0
aa(lp3161
I0
aI0
aI0
aI0
aI0
aI0
aI0
aI0
aa(lp3162
I0
aI0
aI0
aI0
aI0
aI0
aI0
aI0
aa(lp3163
I0
aI0
aI0
aI0
aI0
aI0
aI0
aI0
aa(lp3164
I0
aI0
aI0
aI0
aI0
aI0
aI0
aI0
aa(lp3165
I0
aI0
aI0
aI0
aI0
aI0
aI0
aI0
aa(lp3166
I0
aI0
aI0
aI0
aI0
aI0
aI0
aI0
aa(lp3167
I0
aI0
aI0
aI0
aI0
aI0
aI0
aI0
aa(lp3168
I0
aI0
aI0
aI0
aI0
aI0
aI0
aI0
aa(lp3169
I0
aI0
aI0
aI0
aI0
aI0
aI0
aI0
aaa(lp3170
(lp3171
I0
aI0
aI0
aI0
aI0
aI0
aI0
aI0
aa(lp3172
I0
aI0
aI0
aI0
aI0
aI0
aI0
aI0
aa(lp3173
I0
aI0
aI0
aI0
aI0
aI0
aI0
aI0
aa(lp3174
I0
aI0
aI0
aI0
aI0
aI0
aI0
aI0
aa(lp3175
I0
aI0
aI0
aI0
aI0
aI0
aI0
aI0
aa(lp3176
I0
aI0
aI0
aI0
aI0
aI0
aI0
aI0
aa(lp3177
I0
aI0
aI0
aI0
aI0
aI0
aI0
aI0
aa(lp3178
I0
aI0
aI0
aI0
aI0
aI0
aI0
aI0
aa(lp3179
I0
aI0
aI0
aI0
aI0
aI0
aI0
aI0
aa(lp3180
I0
aI0
aI0
aI0
aI0
aI0
aI0
aI0
aa(lp3181
I0
aI0
aI0
aI0
aI0
aI0
aI0
aI0
aa(lp3182
I0
aI0
aI0
aI0
aI0
aI0
aI0
aI0
aaa(lp3183
(lp3184
I0
aI0
aI0
aI0
aI0
aI0
aI0
aI0
aa(lp3185
I0
aI0
aI0
aI0
aI0
aI0
aI0
aI0
aa(lp3186
I0
aI0
aI0
aI0
aI0
aI0
aI0
aI0
aa(lp3187
I0
aI0
aI0
aI0
aI0
aI0
aI0
aI0
aa(lp3188
I0
aI0
aI0
aI0
aI0
aI0
aI0
aI0
aa(lp3189
I0
aI0
aI0
aI0
aI0
aI0
aI0
aI0
aa(lp3190
I0
aI0
aI0
aI0
aI0
aI0
aI0
aI0
aa(lp3191
I0
aI0
aI0
aI0
aI0
aI0
aI0
aI0
aa(lp3192
I0
aI0
aI0
aI0
aI0
aI0
aI0
aI0
aa(lp3193
I0
aI0
aI0
aI0
aI0
aI0
aI0
aI0
aa(lp3194
I0
aI0
aI0
aI0
aI0
aI0
aI0
aI0
aa(lp3195
I0
aI0
aI0
aI0
aI0
aI0
aI0
aI0
aaa(lp3196
(lp3197
I0
aI0
aI0
aI0
aI0
aI0
aI0
aI0
aa(lp3198
I0
aI0
aI0
aI0
aI0
aI0
aI0
aI0
aa(lp3199
I0
aI0
aI0
aI0
aI0
aI0
aI0
aI0
aa(lp3200
I0
aI0
aI0
aI0
aI0
aI0
aI0
aI0
aa(lp3201
I0
aI0
aI0
aI0
aI0
aI0
aI0
aI0
aa(lp3202
I0
aI0
aI0
aI0
aI0
aI0
aI0
aI0
aa(lp3203
I0
aI0
aI0
aI0
aI0
aI0
aI0
aI0
aa(lp3204
I0
aI0
aI0
aI0
aI0
aI0
aI0
aI0
aa(lp3205
I0
aI0
aI0
aI0
aI0
aI0
aI0
aI0
aa(lp3206
I0
aI0
aI0
aI0
aI0
aI0
aI0
aI0
aa(lp3207
I0
aI0
aI0
aI0
aI0
aI0
aI0
aI0
aa(lp3208
I0
aI0
aI0
aI0
aI0
aI0
aI0
aI0
aaa(lp3209
(lp3210
I0
aI0
aI0
aI0
aI0
aI0
aI0
aI0
aa(lp3211
I0
aI0
aI0
aI0
aI0
aI0
aI0
aI0
aa(lp3212
I0
aI0
aI0
aI0
aI0
aI0
aI0
aI0
aa(lp3213
I0
aI0
aI0
aI0
aI0
aI0
aI0
aI0
aa(lp3214
I0
aI0
aI0
aI0
aI0
aI0
aI0
aI0
aa(lp3215
I0
aI0
aI0
aI0
aI0
aI0
aI0
aI0
aa(lp3216
I0
aI0
aI0
aI0
aI0
aI0
aI0
aI0
aa(lp3217
I0
aI0
aI0
aI0
aI0
aI0
aI0
aI0
aa(lp3218
I0
aI0
aI0
aI0
aI0
aI0
aI0
aI0
aa(lp3219
I0
aI0
aI0
aI0
aI0
aI0
aI0
aI0
aa(lp3220
I0
aI0
aI0
aI0
aI0
aI0
aI0
aI0
aa(lp3221
I0
aI0
aI0
aI0
aI0
aI0
aI0
aI0
aaa(lp3222
(lp3223
I0
aI0
aI0
aI0
aI0
aI0
aI0
aI0
aa(lp3224
I0
aI0
aI0
aI0
aI0
aI0
aI0
aI0
aa(lp3225
I0
aI0
aI0
aI0
aI0
aI0
aI0
aI0
aa(lp3226
I0
aI0
aI0
aI0
aI0
aI0
aI0
aI0
aa(lp3227
I0
aI0
aI0
aI0
aI0
aI0
aI0
aI0
aa(lp3228
I0
aI0
aI0
aI0
aI0
aI0
aI0
aI0
aa(lp3229
I0
aI0
aI0
aI0
aI0
aI0
aI0
aI0
aa(lp3230
I0
aI0
aI0
aI0
aI0
aI0
aI0
aI0
aa(lp3231
I0
aI0
aI0
aI0
aI0
aI0
aI0
aI0
aa(lp3232
I0
aI0
aI0
aI0
aI0
aI0
aI0
aI0
aa(lp3233
I0
aI0
aI0
aI0
aI0
aI0
aI0
aI0
aa(lp3234
I0
aI0
aI0
aI0
aI0
aI0
aI0
aI0
aaa(lp3235
(lp3236
I0
aI0
aI0
aI0
aI0
aI0
aI0
aI0
aa(lp3237
I0
aI0
aI0
aI0
aI0
aI0
aI0
aI0
aa(lp3238
I0
aI0
aI0
aI0
aI0
aI0
aI0
aI0
aa(lp3239
I0
aI0
aI0
aI0
aI0
aI0
aI0
aI0
aa(lp3240
I0
aI0
aI0
aI0
aI0
aI0
aI0
aI0
aa(lp3241
I0
aI0
aI0
aI0
aI0
aI0
aI0
aI0
aa(lp3242
I0
aI0
aI0
aI0
aI0
aI0
aI0
aI0
aa(lp3243
I0
aI0
aI0
aI0
aI0
aI0
aI0
aI0
aa(lp3244
I0
aI0
aI0
aI0
aI0
aI0
aI0
aI0
aa(lp3245
I0
aI0
aI0
aI0
aI0
aI0
aI0
aI0
aa(lp3246
I0
aI0
aI0
aI0
aI0
aI0
aI0
aI0
aa(lp3247
I0
aI0
aI0
aI0
aI0
aI0
aI0
aI0
aaa(lp3248
(lp3249
I0
aI0
aI0
aI0
aI0
aI0
aI0
aI0
aa(lp3250
I0
aI0
aI0
aI0
aI0
aI0
aI0
aI0
aa(lp3251
I0
aI0
aI0
aI0
aI0
aI0
aI0
aI0
aa(lp3252
I0
aI0
aI0
aI0
aI0
aI0
aI0
aI0
aa(lp3253
I0
aI0
aI0
aI0
aI0
aI0
aI0
aI0
aa(lp3254
I0
aI0
aI0
aI0
aI0
aI0
aI0
aI0
aa(lp3255
I0
aI0
aI0
aI0
aI0
aI0
aI0
aI0
aa(lp3256
I0
aI0
aI0
aI0
aI0
aI0
aI0
aI0
aa(lp3257
I0
aI0
aI0
aI0
aI0
aI0
aI0
aI0
aa(lp3258
I0
aI0
aI0
aI0
aI0
aI0
aI0
aI0
aa(lp3259
I0
aI0
aI0
aI0
aI0
aI0
aI0
aI0
aa(lp3260
I0
aI0
aI0
aI0
aI0
aI0
aI0
aI0
aaa(lp3261
(lp3262
I0
aI0
aI0
aI0
aI0
aI0
aI0
aI0
aa(lp3263
I0
aI0
aI0
aI0
aI0
aI0
aI0
aI0
aa(lp3264
I0
aI0
aI0
aI0
aI0
aI0
aI0
aI0
aa(lp3265
I0
aI0
aI0
aI0
aI0
aI0
aI0
aI0
aa(lp3266
I0
aI0
aI0
aI0
aI0
aI0
aI0
aI0
aa(lp3267
I0
aI0
aI0
aI0
aI0
aI0
aI0
aI0
aa(lp3268
I0
aI0
aI0
aI0
aI0
aI0
aI0
aI0
aa(lp3269
I0
aI0
aI0
aI0
aI0
aI0
aI0
aI0
aa(lp3270
I0
aI0
aI0
aI0
aI0
aI0
aI0
aI0
aa(lp3271
I0
aI0
aI0
aI0
aI0
aI0
aI0
aI0
aa(lp3272
I0
aI0
aI0
aI0
aI0
aI0
aI0
aI0
aa(lp3273
I0
aI0
aI0
aI0
aI0
aI0
aI0
aI0
aaa(lp3274
(lp3275
I0
aI0
aI0
aI0
aI0
aI0
aI0
aI0
aa(lp3276
I0
aI0
aI0
aI0
aI0
aI0
aI0
aI0
aa(lp3277
I0
aI0
aI0
aI0
aI0
aI0
aI0
aI0
aa(lp3278
I0
aI0
aI0
aI0
aI0
aI0
aI0
aI0
aa(lp3279
I0
aI0
aI0
aI0
aI0
aI0
aI0
aI0
aa(lp3280
I0
aI0
aI0
aI0
aI0
aI0
aI0
aI0
aa(lp3281
I0
aI0
aI0
aI0
aI0
aI0
aI0
aI0
aa(lp3282
I0
aI0
aI0
aI0
aI0
aI0
aI0
aI0
aa(lp3283
I0
aI0
aI0
aI0
aI0
aI0
aI0
aI0
aa(lp3284
I0
aI0
aI0
aI0
aI0
aI0
aI0
aI0
aa(lp3285
I0
aI0
aI0
aI0
aI0
aI0
aI0
aI0
aa(lp3286
I0
aI0
aI0
aI0
aI0
aI0
aI0
aI0
aaa(lp3287
(lp3288
I0
aI0
aI0
aI0
aI0
aI0
aI0
aI0
aa(lp3289
I0
aI0
aI0
aI0
aI0
aI0
aI0
aI0
aa(lp3290
I0
aI0
aI0
aI0
aI0
aI0
aI0
aI0
aa(lp3291
I0
aI0
aI0
aI0
aI0
aI0
aI0
aI0
aa(lp3292
I0
aI0
aI0
aI0
aI0
aI0
aI0
aI0
aa(lp3293
I0
aI0
aI0
aI0
aI0
aI0
aI0
aI0
aa(lp3294
I0
aI0
aI0
aI0
aI0
aI0
aI0
aI0
aa(lp3295
I0
aI0
aI0
aI0
aI0
aI0
aI0
aI0
aa(lp3296
I0
aI0
aI0
aI0
aI0
aI0
aI0
aI0
aa(lp3297
I0
aI0
aI0
aI0
aI0
aI0
aI0
aI0
aa(lp3298
I0
aI0
aI0
aI0
aI0
aI0
aI0
aI0
aa(lp3299
I0
aI0
aI0
aI0
aI0
aI0
aI0
aI0
aaa(lp3300
(lp3301
I0
aI0
aI0
aI0
aI0
aI0
aI0
aI0
aa(lp3302
I0
aI0
aI0
aI0
aI0
aI0
aI0
aI0
aa(lp3303
I0
aI0
aI0
aI0
aI0
aI0
aI0
aI0
aa(lp3304
I0
aI0
aI0
aI0
aI0
aI0
aI0
aI0
aa(lp3305
I0
aI0
aI0
aI0
aI0
aI0
aI0
aI0
aa(lp3306
I0
aI0
aI0
aI0
aI0
aI0
aI0
aI0
aa(lp3307
I0
aI0
aI0
aI0
aI0
aI0
aI0
aI0
aa(lp3308
I0
aI0
aI0
aI0
aI0
aI0
aI0
aI0
aa(lp3309
I0
aI0
aI0
aI0
aI0
aI0
aI0
aI0
aa(lp3310
I0
aI0
aI0
aI0
aI0
aI0
aI0
aI0
aa(lp3311
I0
aI0
aI0
aI0
aI0
aI0
aI0
aI0
aa(lp3312
I0
aI0
aI0
aI0
aI0
aI0
aI0
aI0
aaa(lp3313
(lp3314
I0
aI0
aI0
aI0
aI0
aI0
aI0
aI0
aa(lp3315
I0
aI0
aI0
aI0
aI0
aI0
aI0
aI0
aa(lp3316
I0
aI0
aI0
aI0
aI0
aI0
aI0
aI0
aa(lp3317
I0
aI0
aI0
aI0
aI0
aI0
aI0
aI0
aa(lp3318
I0
aI0
aI0
aI0
aI0
aI0
aI0
aI0
aa(lp3319
I0
aI0
aI0
aI0
aI0
aI0
aI0
aI0
aa(lp3320
I0
aI0
aI0
aI0
aI0
aI0
aI0
aI0
aa(lp3321
I0
aI0
aI0
aI0
aI0
aI0
aI0
aI0
aa(lp3322
I0
aI0
aI0
aI0
aI0
aI0
aI0
aI0
aa(lp3323
I0
aI0
aI0
aI0
aI0
aI0
aI0
aI0
aa(lp3324
I0
aI0
aI0
aI0
aI0
aI0
aI0
aI0
aa(lp3325
I0
aI0
aI0
aI0
aI0
aI0
aI0
aI0
aaa(lp3326
(lp3327
I0
aI0
aI0
aI0
aI0
aI0
aI0
aI0
aa(lp3328
I0
aI0
aI0
aI0
aI0
aI0
aI0
aI0
aa(lp3329
I0
aI0
aI0
aI0
aI0
aI0
aI0
aI0
aa(lp3330
I0
aI0
aI0
aI0
aI0
aI0
aI0
aI0
aa(lp3331
I0
aI0
aI0
aI0
aI0
aI0
aI0
aI0
aa(lp3332
I0
aI0
aI0
aI0
aI0
aI0
aI0
aI0
aa(lp3333
I0
aI0
aI0
aI0
aI0
aI0
aI0
aI0
aa(lp3334
I0
aI0
aI0
aI0
aI0
aI0
aI0
aI0
aa(lp3335
I0
aI0
aI0
aI0
aI0
aI0
aI0
aI0
aa(lp3336
I0
aI0
aI0
aI0
aI0
aI0
aI0
aI0
aa(lp3337
I0
aI0
aI0
aI0
aI0
aI0
aI0
aI0
aa(lp3338
I0
aI0
aI0
aI0
aI0
aI0
aI0
aI0
aaasS'fg'
p3339
(dp3340
S'r'
I65535
sS'b'
I65535
sS'g'
I65535
ssb.